CCS PCH C Compiler, Version 5.104, 57077               24-2-26 11:13

               Filename:   C:\Users\rice_\Chiba Institute of Technology\6Źåŗ@ - āhāLāģāüāōāg\TMP_MIS\02_Software\PIC18_Practice\08_FLASH2.128\FLASH2.lst

               ROM used:   2794 bytes (2%)
                           Largest free fragment is 65520
               RAM used:   53 (1%) at main() level
                           80 (2%) worst case
               Stack used: 2 locations
               Stack size: 31

*
00000:  NOP   
00002:  GOTO   07A0
.................... #include "FLASH2.h"
.................... #include <18F67J94.h>
.................... //////////// Standard Header file for the PIC18F67J94 device ////////////////
.................... ///////////////////////////////////////////////////////////////////////////
.................... ////        (C) Copyright 1996, 2020 Custom Computer Services          ////
.................... //// This source code may only be used by licensed users of the CCS C  ////
.................... //// compiler.  This source code may only be distributed to other      ////
.................... //// licensed users of the CCS C compiler.  No other use, reproduction ////
.................... //// or distribution is permitted without written permission.          ////
.................... //// Derivative programs created using this software in object code    ////
.................... //// form are not restricted in any way.                               ////
.................... ///////////////////////////////////////////////////////////////////////////
.................... #device PIC18F67J94
00006:  DATA 31,32
00008:  DATA 38,4D
0000A:  DATA 62,69
0000C:  DATA 74,20
0000E:  DATA 66,6C
00010:  DATA 61,73
00012:  DATA 68,20
00014:  DATA 62,75
00016:  DATA 73,79
00018:  DATA 0A,0D
0001A:  DATA 00,00
0001C:  DATA 52,65
0001E:  DATA 61,64
00020:  DATA 20,49
00022:  DATA 44,3A
00024:  DATA 00,00
00026:  DATA 66,6C
00028:  DATA 61,73
0002A:  DATA 68,20
0002C:  DATA 63,6F
0002E:  DATA 6E,6E
00030:  DATA 65,63
00032:  DATA 74,20
00034:  DATA 4F,4B
00036:  DATA 0D,0A
00038:  DATA 00,00
0003A:  DATA 66,6C
0003C:  DATA 61,73
0003E:  DATA 68,20
00040:  DATA 6E,6F
00042:  DATA 74,20
00044:  DATA 63,6F
00046:  DATA 6E,6E
00048:  DATA 65,63
0004A:  DATA 74,0D
0004C:  DATA 0A,00
0004E:  DATA 66,6C
00050:  DATA 61,73
00052:  DATA 68,20
00054:  DATA 74,69
00056:  DATA 6D,65
00058:  DATA 6F,75
0005A:  DATA 74,00
0005C:  DATA 66,6C
0005E:  DATA 61,73
00060:  DATA 68,20
00062:  DATA 74,69
00064:  DATA 6D,65
00066:  DATA 6F,75
00068:  DATA 74,00
0006A:  DATA 66,6C
0006C:  DATA 61,73
0006E:  DATA 68,20
00070:  DATA 74,69
00072:  DATA 6D,65
00074:  DATA 6F,75
00076:  DATA 74,00
00078:  DATA 66,6C
0007A:  DATA 61,73
0007C:  DATA 68,20
0007E:  DATA 74,69
00080:  DATA 6D,65
00082:  DATA 6F,75
00084:  DATA 74,00
00086:  DATA 66,6C
00088:  DATA 61,73
0008A:  DATA 68,20
0008C:  DATA 74,69
0008E:  DATA 6D,65
00090:  DATA 6F,75
00092:  DATA 74,00
00094:  DATA 3D,3D
00096:  DATA 50,72
00098:  DATA 6F,67
0009A:  DATA 72,61
0009C:  DATA 6D,20
0009E:  DATA 53,74
000A0:  DATA 61,72
000A2:  DATA 74,3D
000A4:  DATA 3D,0D
000A6:  DATA 0A,00
000A8:  DATA 46,6C
000AA:  DATA 61,73
000AC:  DATA 68,20
000AE:  DATA 53,65
000B0:  DATA 74,74
000B2:  DATA 69,6E
000B4:  DATA 67,20
000B6:  DATA 53,74
000B8:  DATA 61,72
000BA:  DATA 74,69
000BC:  DATA 6E,67
000BE:  DATA 2E,2E
000C0:  DATA 2E,0D
000C2:  DATA 0A,00
000C4:  DATA 46,6C
000C6:  DATA 61,73
000C8:  DATA 68,20
000CA:  DATA 53,65
000CC:  DATA 74,74
000CE:  DATA 69,6E
000D0:  DATA 67,20
000D2:  DATA 64,6F
000D4:  DATA 6E,65
000D6:  DATA 2E,0D
000D8:  DATA 0A,00
000DA:  DATA 53,74
000DC:  DATA 61,74
000DE:  DATA 75,73
000E0:  DATA 20,52
000E2:  DATA 65,67
000E4:  DATA 69,73
000E6:  DATA 74,65
000E8:  DATA 72,20
000EA:  DATA 46,6C
000EC:  DATA 61,73
000EE:  DATA 68,31
000F0:  DATA 32,38
000F2:  DATA 4D,20
000F4:  DATA 53,74
000F6:  DATA 61,72
000F8:  DATA 74,69
000FA:  DATA 6E,67
000FC:  DATA 2E,2E
000FE:  DATA 2E,0D
00100:  DATA 0A,00
00102:  DATA 53,74
00104:  DATA 61,74
00106:  DATA 75,73
00108:  DATA 20,52
0010A:  DATA 65,67
0010C:  DATA 69,73
0010E:  DATA 74,65
00110:  DATA 72,20
00112:  DATA 46,6C
00114:  DATA 61,73
00116:  DATA 68,31
00118:  DATA 32,38
0011A:  DATA 4D,20
0011C:  DATA 64,6F
0011E:  DATA 6E,65
00120:  DATA 2E,0D
00122:  DATA 0A,00
00124:  DATA 52,65
00126:  DATA 61,64
00128:  DATA 20,49
0012A:  DATA 44,20
0012C:  DATA 46,6C
0012E:  DATA 61,73
00130:  DATA 68,31
00132:  DATA 32,38
00134:  DATA 4D,20
00136:  DATA 53,74
00138:  DATA 61,72
0013A:  DATA 74,69
0013C:  DATA 6E,67
0013E:  DATA 2E,2E
00140:  DATA 2E,0D
00142:  DATA 0A,00
00144:  DATA 46,6C
00146:  DATA 61,73
00148:  DATA 68,20
0014A:  DATA 49,44
0014C:  DATA 20,43
0014E:  DATA 68,65
00150:  DATA 63,6B
00152:  DATA 20,4F
00154:  DATA 4B,2E
00156:  DATA 0D,0A
00158:  DATA 00,00
0015A:  DATA 46,6C
0015C:  DATA 61,73
0015E:  DATA 68,20
00160:  DATA 49,44
00162:  DATA 20,43
00164:  DATA 68,65
00166:  DATA 63,6B
00168:  DATA 20,46
0016A:  DATA 41,49
0016C:  DATA 4C,45
0016E:  DATA 44,2E
00170:  DATA 20,28
00172:  DATA 43,68
00174:  DATA 65,63
00176:  DATA 6B,20
00178:  DATA 43,6F
0017A:  DATA 6E,6E
0017C:  DATA 65,63
0017E:  DATA 74,69
00180:  DATA 6F,6E
00182:  DATA 73,29
00184:  DATA 0D,0A
00186:  DATA 00,00
00188:  DATA 52,65
0018A:  DATA 61,64
0018C:  DATA 20,49
0018E:  DATA 44,20
00190:  DATA 46,6C
00192:  DATA 61,73
00194:  DATA 68,31
00196:  DATA 32,38
00198:  DATA 4D,20
0019A:  DATA 64,6F
0019C:  DATA 6E,65
0019E:  DATA 2E,0D
001A0:  DATA 0A,00
001A2:  DATA 0D,0A
001A4:  DATA 3D,3D
001A6:  DATA 3D,3D
001A8:  DATA 3D,3D
001AA:  DATA 3D,3D
001AC:  DATA 3D,3D
001AE:  DATA 3D,3D
001B0:  DATA 3D,3D
001B2:  DATA 3D,3D
001B4:  DATA 3D,3D
001B6:  DATA 3D,3D
001B8:  DATA 3D,3D
001BA:  DATA 3D,3D
001BC:  DATA 3D,3D
001BE:  DATA 3D,3D
001C0:  DATA 3D,3D
001C2:  DATA 3D,3D
001C4:  DATA 0D,0A
001C6:  DATA 00,00
001C8:  DATA 50,6C
001CA:  DATA 65,61
001CC:  DATA 73,65
001CE:  DATA 20,65
001D0:  DATA 6E,74
001D2:  DATA 65,72
001D4:  DATA 20,74
001D6:  DATA 65,78
001D8:  DATA 74,20
001DA:  DATA 28,6D
001DC:  DATA 61,78
001DE:  DATA 20,32
001E0:  DATA 30,20
001E2:  DATA 63,68
001E4:  DATA 61,72
001E6:  DATA 73,29
001E8:  DATA 20,61
001EA:  DATA 6E,64
001EC:  DATA 20,70
001EE:  DATA 72,65
001F0:  DATA 73,73
001F2:  DATA 20,45
001F4:  DATA 4E,54
001F6:  DATA 45,52
001F8:  DATA 3A,0D
001FA:  DATA 0A,3E
001FC:  DATA 20,00
001FE:  DATA 4E,6F
00200:  DATA 20,74
00202:  DATA 65,78
00204:  DATA 74,20
00206:  DATA 65,6E
00208:  DATA 74,65
0020A:  DATA 72,65
0020C:  DATA 64,2E
0020E:  DATA 20,54
00210:  DATA 72,79
00212:  DATA 20,61
00214:  DATA 67,61
00216:  DATA 69,6E
00218:  DATA 2E,0D
0021A:  DATA 0A,00
0021C:  DATA 49,6E
0021E:  DATA 70,75
00220:  DATA 74,20
00222:  DATA 72,65
00224:  DATA 63,65
00226:  DATA 69,76
00228:  DATA 65,64
0022A:  DATA 3A,20
0022C:  DATA 25,73
0022E:  DATA 20,28
00230:  DATA 4C,65
00232:  DATA 6E,67
00234:  DATA 74,68
00236:  DATA 3A,20
00238:  DATA 25,75
0023A:  DATA 29,0D
0023C:  DATA 0A,00
0023E:  DATA 53,65
00240:  DATA 63,74
00242:  DATA 6F,72
00244:  DATA 20,45
00246:  DATA 72,61
00248:  DATA 73,65
0024A:  DATA 20,46
0024C:  DATA 6C,61
0024E:  DATA 73,68
00250:  DATA 31,32
00252:  DATA 38,4D
00254:  DATA 20,28
00256:  DATA 41,64
00258:  DATA 64,72
0025A:  DATA 3A,20
0025C:  DATA 30,78
0025E:  DATA 30,30
00260:  DATA 30,30
00262:  DATA 29,2E
00264:  DATA 2E,2E
00266:  DATA 0D,0A
00268:  DATA 00,00
0026A:  DATA 53,65
0026C:  DATA 63,74
0026E:  DATA 6F,72
00270:  DATA 20,45
00272:  DATA 72,61
00274:  DATA 73,65
00276:  DATA 20,64
00278:  DATA 6F,6E
0027A:  DATA 65,2E
0027C:  DATA 0D,0A
0027E:  DATA 00,00
00280:  DATA 57,72
00282:  DATA 69,74
00284:  DATA 69,6E
00286:  DATA 67,20
00288:  DATA 44,61
0028A:  DATA 74,61
0028C:  DATA 2E,2E
0028E:  DATA 2E,0D
00290:  DATA 0A,00
00292:  DATA 57,72
00294:  DATA 69,74
00296:  DATA 65,20
00298:  DATA 64,6F
0029A:  DATA 6E,65
0029C:  DATA 2E,0D
0029E:  DATA 0A,00
002A0:  DATA 52,65
002A2:  DATA 61,64
002A4:  DATA 69,6E
002A6:  DATA 67,20
002A8:  DATA 44,61
002AA:  DATA 74,61
002AC:  DATA 2E,2E
002AE:  DATA 2E,0D
002B0:  DATA 0A,00
002B2:  DATA 52,65
002B4:  DATA 61,64
002B6:  DATA 20,52
002B8:  DATA 65,73
002BA:  DATA 75,6C
002BC:  DATA 74,28
002BE:  DATA 53,74
002C0:  DATA 72,69
002C2:  DATA 6E,67
002C4:  DATA 29,3A
002C6:  DATA 20,25
002C8:  DATA 73,0D
002CA:  DATA 0A,00
002CC:  DATA 52,65
002CE:  DATA 61,64
002D0:  DATA 20,52
002D2:  DATA 65,73
002D4:  DATA 75,6C
002D6:  DATA 74,28
002D8:  DATA 48,65
002DA:  DATA 78,29
002DC:  DATA 3A,20
002DE:  DATA 00,00
002E0:  TBLRD*+
002E2:  MOVF   FF5,F
002E4:  BZ    0308
002E6:  MOVFF  FF6,49
002EA:  MOVFF  FF7,4A
002EE:  MOVFF  FF8,4B
002F2:  MOVF   FF5,W
002F4:  BTFSS  F9E.4
002F6:  BRA    02F4
002F8:  MOVWF  FAD
002FA:  MOVFF  49,FF6
002FE:  MOVFF  4A,FF7
00302:  MOVFF  4B,FF8
00306:  BRA    02E0
00308:  RETURN 0
*
0038E:  BTFSC  4B.7
00390:  BRA    03B2
00392:  MOVLW  0F
00394:  MOVWF  00
00396:  SWAPF  4A,W
00398:  ANDWF  00,F
0039A:  MOVLW  0A
0039C:  SUBWF  00,W
0039E:  BC    03A6
003A0:  MOVLW  30
003A2:  ADDWF  00,F
003A4:  BRA    03AA
003A6:  MOVF   4B,W
003A8:  ADDWF  00,F
003AA:  MOVF   00,W
003AC:  BTFSS  F9E.4
003AE:  BRA    03AC
003B0:  MOVWF  FAD
003B2:  MOVLW  0F
003B4:  ANDWF  4A,F
003B6:  MOVLW  0A
003B8:  SUBWF  4A,W
003BA:  BC    03C0
003BC:  MOVLW  30
003BE:  BRA    03C4
003C0:  BCF    4B.7
003C2:  MOVF   4B,W
003C4:  ADDWF  4A,F
003C6:  MOVF   4A,W
003C8:  BTFSS  F9E.4
003CA:  BRA    03C8
003CC:  MOVWF  FAD
003CE:  RETURN 0
*
004A0:  TBLRD*+
004A2:  MOVFF  FF6,34
004A6:  MOVFF  FF7,35
004AA:  MOVFF  FF8,36
004AE:  MOVF   FF5,W
004B0:  BTFSS  F9E.4
004B2:  BRA    04B0
004B4:  MOVWF  FAD
004B6:  MOVFF  34,FF6
004BA:  MOVFF  35,FF7
004BE:  MOVFF  36,FF8
004C2:  DECFSZ 33,F
004C4:  BRA    04A0
004C6:  RETURN 0
004C8:  MOVF   FEF,F
004CA:  BZ    04EC
004CC:  MOVFF  FEA,34
004D0:  MOVFF  FE9,33
004D4:  MOVF   FEF,W
004D6:  BTFSS  F9E.4
004D8:  BRA    04D6
004DA:  MOVWF  FAD
004DC:  MOVFF  34,FEA
004E0:  MOVFF  33,FE9
004E4:  INCF   FE9,F
004E6:  BTFSC  FD8.2
004E8:  INCF   FEA,F
004EA:  BRA    04C8
004EC:  RETURN 0
004EE:  MOVF   36,W
004F0:  CLRF   01
004F2:  SUBWF  35,W
004F4:  BC    04FC
004F6:  MOVFF  35,00
004FA:  BRA    0514
004FC:  CLRF   00
004FE:  MOVLW  08
00500:  MOVWF  37
00502:  RLCF   35,F
00504:  RLCF   00,F
00506:  MOVF   36,W
00508:  SUBWF  00,W
0050A:  BTFSC  FD8.0
0050C:  MOVWF  00
0050E:  RLCF   01,F
00510:  DECFSZ 37,F
00512:  BRA    0502
00514:  RETURN 0
00516:  MOVF   01,W
00518:  MOVFF  33,35
0051C:  MOVLW  64
0051E:  MOVWF  36
00520:  RCALL  04EE
00522:  MOVFF  00,33
00526:  MOVF   01,W
00528:  MOVLW  30
0052A:  BNZ   053A
0052C:  BTFSS  34.1
0052E:  BRA    054A
00530:  BTFSC  34.3
00532:  BRA    054A
00534:  BTFSC  34.4
00536:  MOVLW  20
00538:  BRA    0540
0053A:  BCF    34.3
0053C:  BCF    34.4
0053E:  BSF    34.0
00540:  ADDWF  01,F
00542:  MOVF   01,W
00544:  BTFSS  F9E.4
00546:  BRA    0544
00548:  MOVWF  FAD
0054A:  MOVFF  33,35
0054E:  MOVLW  0A
00550:  MOVWF  36
00552:  RCALL  04EE
00554:  MOVFF  00,33
00558:  MOVF   01,W
0055A:  MOVLW  30
0055C:  BNZ   056A
0055E:  BTFSC  34.3
00560:  BRA    0574
00562:  BTFSS  34.0
00564:  BRA    0574
00566:  BTFSC  34.4
00568:  MOVLW  20
0056A:  ADDWF  01,F
0056C:  MOVF   01,W
0056E:  BTFSS  F9E.4
00570:  BRA    056E
00572:  MOVWF  FAD
00574:  MOVLW  30
00576:  ADDWF  33,F
00578:  MOVF   33,W
0057A:  BTFSS  F9E.4
0057C:  BRA    057A
0057E:  MOVWF  FAD
00580:  GOTO   09CC (RETURN)
.................... 
.................... #list
.................... 
.................... 
.................... 
.................... 
.................... 
.................... #FUSES NOWDT                    //No Watch Dog Timer
.................... #device ADC = 12
.................... #use delay(crystal=16000000)
00584:  CLRF   FEA
00586:  MOVLW  3F
00588:  MOVWF  FE9
0058A:  MOVF   FEF,W
0058C:  BZ    05AA
0058E:  MOVLW  05
00590:  MOVWF  01
00592:  CLRF   00
00594:  DECFSZ 00,F
00596:  BRA    0594
00598:  DECFSZ 01,F
0059A:  BRA    0592
0059C:  MOVLW  2E
0059E:  MOVWF  00
005A0:  DECFSZ 00,F
005A2:  BRA    05A0
005A4:  BRA    05A6
005A6:  DECFSZ FEF,F
005A8:  BRA    058E
005AA:  RETURN 0
.................... 
.................... #pin_select U1TX = PIN_F7
.................... #pin_select U1RX = PIN_F5
.................... #use rs232(baud=9600, UART1, parity=N,bits=8,stream=PORT1)
*
00498:  BTFSS  F9E.4
0049A:  BRA    0498
0049C:  MOVWF  FAD
0049E:  RETURN 0
.................... 
.................... #pin_select U2TX = PIN_D3
.................... #pin_select U2RX =    PIN_D2
.................... #use rs232(baud=9600, UART2, parity=N,bits=8,stream=PORT2)
.................... 
.................... #pin_select U3TX = PIN_E5
.................... #pin_select U3RX = PIN_E4
.................... #use rs232(baud=9600, UART3, parity=N,bits=8,stream=PORT3)
.................... 
.................... #pin_select U4TX = PIN_E3
.................... #pin_select U4RX = PIN_F2
.................... #use rs232(baud=9600, UART4, parity=N,bits=8,stream=PORT4)
.................... 
.................... //#define SPI1_CS PIN_A2
.................... //#use spi (MASTER, CLK = PIN_A3, DI = PIN_A0, DO = PIN_A1,BAUD=1000000, MODE=0, BITS=8, STREAM=SPI1)
.................... 
.................... #define SPI2_CS PIN_B3
.................... #use spi (MASTER, CLK = PIN_B2, DI = PIN_B5, DO = PIN_B4,BAUD=1000000, MODE=0, BITS=8, STREAM=SPI2)
*
00312:  MOVF   4C,W
00314:  SUBLW  08
00316:  BZ    0320
00318:  MOVWF  4E
0031A:  RLCF   4B,F
0031C:  DECFSZ 4E,F
0031E:  BRA    031A
00320:  BSF    F93.5
00322:  BCF    F93.4
00324:  BCF    F93.2
00326:  BCF    F8A.2
00328:  MOVFF  4C,4E
0032C:  BTFSS  4B.7
0032E:  BCF    F8A.4
00330:  BTFSC  4B.7
00332:  BSF    F8A.4
00334:  RLCF   4B,F
00336:  BSF    F8A.2
00338:  RLCF   01,F
0033A:  BTFSS  F81.5
0033C:  BCF    01.0
0033E:  BTFSC  F81.5
00340:  BSF    01.0
00342:  BCF    F8A.2
00344:  DECFSZ 4E,F
00346:  BRA    032C
00348:  RETURN 0
.................... 
.................... #define DIO_3 PIN_G0
.................... #define DIO_4 PIN_G1
.................... #define DIO_5 PIN_G2
.................... #define DIO_6 PIN_G3
.................... #define DIO_8 PIN_G4
.................... #define DIO_12 PIN_F6
.................... #define DIO_27 PIN_A5
.................... #define DIO_28 PIN_A4
.................... #define DIO_29 PIN_C1
.................... #define DIO_30 PIN_C0
.................... #define DIO_31 PIN_C6
.................... #define DIO_32 PIN_C7
.................... #define DIO_33 PIN_C2
.................... #define DIO_34 PIN_C3
.................... #define DIO_35 PIN_C4
.................... #define DIO_36 PIN_C5
.................... #define DIO_47 PIN_B1
.................... #define DIO_48 PIN_B0
.................... #define DIO_49 PIN_D7
.................... #define DIO_50 PIN_D6
.................... #define DIO_51 PIN_D5
.................... #define DIO_52 PIN_D4
.................... #define DIO_55 PIN_D1
.................... #define DIO_58 PIN_D0
.................... #define DIO_59 PIN_E7
.................... 
.................... #include <GDNS_tbd_FlashOperation.c>
.................... #include <GDNS_tbd_FlashOperation.h>
.................... #define DEBUG
.................... //#define USE_FLASH1G     //MT25QL01GBBB:SMF,CF
.................... #define USE_FLASH128M   //MT25QL128ABA:PICF,GF
.................... 
.................... //////////////////////////////port select//////////////////////////////////////
.................... #ifdef DEBUG
....................     #define DEBUG_PORT PORT1
.................... #endif
.................... 
.................... #ifdef USE_FLASH1G
....................     #define FLASH1G SPI2//port for 1 Gbit Flash
....................     #define FLASH1G_CS PIN_B3
.................... #endif
.................... 
.................... #ifdef USE_FLASH128M
....................     #define FLASH128M SPI2//port for 128 Mbit Flash
....................     #define FLASH128M_CS PIN_B3
.................... #endif
.................... 
.................... ////////////////////////////////CMD List///////////////////////////////////////
.................... #define READ_ID                     0x9F
.................... #define READ_STATUS_REGISTER        0x05
.................... #define READ                        0x03
.................... #define READ_4BYTE                  0x13
.................... #define WRITE_ENABLE                0x06
.................... #define PAGE_PROGRAM                0x02
.................... #define PAGE_PROGRAM_4BYTE          0x12
.................... #define SUBSECTOR_4KB_ERASE         0x20
.................... #define SUBSECTOR_4KB_ERASE_4BYTE   0x21
.................... #define SUBSECTOR_32KB_ERASE        0x52
.................... #define SUBSECTOR_32KB_ERASE_4BYTE  0x5C
.................... #define SECTOR_ERASE                0xD8
.................... #define SECTOR_ERASE_4BYTE          0xDC
.................... 
.................... ///////////////////////////function List///////////////////////////////////////
.................... #ifdef USE_FLASH1G
....................     int8 status_register_flash1g();                                                                       //bit[7:2]status register control bit,bit[1]write enable bit T:ennable F:disable,bit[0]write in progress bit T:busy F:ready
....................     int8 read_id_flash1g();                                                                               //T:Flash id read successfully(connect OK),F:Flash id read failed
....................     void sector_erase_flash1g(unsigned int32 sector_address);                                             //64kByte erase
....................     void subsector_32kByte_erase_flash1g(unsigned int32 subsector_address);                               //32kByte erase
....................     void subsector_4kByte_erase_flash1g(unsigned int32 subsector_address);                                //4kByte erase
....................     int8 read_data_byte_flash1g(unsigned int32 read_address);                                             //read 1 Byte data
....................     void read_data_bytes_flash1g(unsigned int32 read_address,unsigned int32 amount,int8 *read_data);      //read multi Bytes data(max 128 MByte) and store to "read data"
....................     void write_data_byte_flash1g(unsigned int32 write_address,int8 write_data);                           //write 1 Byte data to flash
....................     void write_data_bytes_flash1g(unsigned int32 write_address,int8 amount,int8 *write_data);             //write multi Bytes data(max128 Byte) to flash
.................... #endif
.................... 
.................... #ifdef USE_FLASH128M
....................     int8 status_register_flash128m();                                                                     //bit[7:2]status register control bit,bit[1]write enable bit T:ennable F:disable,bit[0]write in progress bit T:busy F:ready
....................     int8 read_id_flash128m();                                                                             //T:Flash id read successfully(connect OK),F:Flash id read failed
....................     void sector_erase_flash128m(unsigned int32 sector_address);                                           //64kByte erase
....................     void subsector_32kByte_erase_flash128m(unsigned int32 subsector_address);                             //32kByte erase
....................     void subsector_4kByte_erase_flash128m(unsigned int32 subsector_address);                              //4kByte erase
....................     int8 read_data_byte_flash128m(unsigned int32 read_address);                                           //read 1 Byte data
....................     void read_data_bytes_flash128m(unsigned int32 read_address,unsigned int32 amount,int8 *read_data);    //read multi Bytes data(max 128 MByte) and store to "read data"
....................     void write_data_byte_flash128m(unsigned int32 write_address,int8 write_data);                         //write 1 Byte data to flash
....................     void write_data_bytes_flash128m(unsigned int32 write_address,int8 amount,int8 *write_data);           //write multi Bytes data(max128 Byte) to flash
.................... #endif
.................... 
.................... 
.................... void flash_setting()
.................... {
....................     #ifdef USE_FLASH1G
....................         output_high(FLASH1G_CS);
....................     #endif
....................     #ifdef USE_FLASH128M
....................         output_high(FLASH128M_CS);
*
0030A:  BCF    F93.3
0030C:  BSF    F8A.3
....................     #endif
0030E:  GOTO   0886 (RETURN)
.................... }
.................... 
.................... #ifdef USE_FLASH1G
....................     int8 status_register_flash1g()
....................     {
....................         int8 status_reg;
....................         output_low(FLASH1G_CS);                                              //lower the CS PIN
....................         spi_xfer(FLASH1G,READ_STATUS_REGISTER);                              //READ STATUS REGISTER COMAND  (0x05)
....................         status_reg = spi_xfer(FLASH1G);
....................         output_high(FLASH1G_CS);                                             //take CS PIN higher back
....................         #ifdef DEBUG
....................             if((status_reg & 0x01) == true)                                  //masking status bit
....................             {
....................                 fprintf(DEBUG_PORT,"1Gbit flash busy\n\r");
....................             }
....................         #endif
....................         return status_reg;
....................     }
.................... 
....................     int8 read_id_flash1g()//->success:True,fail:false
....................     {
....................         int8 chip_id[21];
....................         output_low(FLASH1G_CS);
....................         for (int8 i = 0; i < 21; i++)
....................         {
....................             if (i == 0)
....................             {
....................                 chip_id[i] = spi_xfer(FLASH1G,READ_ID);
....................                 #ifdef DEBUG
....................                     fprintf(DEBUG_PORT,"Read ID:");
....................                 #endif
....................             }
....................             else
....................             {
....................                 chip_id[i] = spi_xfer(FLASH1G);
....................                 #ifdef DEBUG
....................                     fprintf(DEBUG_PORT,"%x ",chip_id[i]);
....................                 #endif
....................             }
....................         }
....................         output_high(FLASH1G_CS);
....................         #ifdef DEBUG
....................             fprintf(DEBUG_PORT,"\r\n");
....................         #endif
....................         //chip id check
....................         if(chip_id[1] == 0x20)
....................         {
....................             #ifdef DEBUG
....................                 fprintf(DEBUG_PORT,"flash connect OK\r\n");
....................             #endif
....................             return true;
....................         }
....................         else
....................         {
....................             #ifdef DEBUG
....................                 fprintf(DEBUG_PORT,"flash not connect\r\n");
....................             #endif
....................             return false;
....................         }
....................     }
.................... 
....................     void sector_erase_flash1g(unsigned int32 sector_address)
....................     {
....................         unsigned int8 address[4];
....................         unsigned int8 timeout_counter = 0;
.................... 
....................         address[0]  = (unsigned int8)((sector_address>>24) & 0xff);   // 0x _ _ 00 00 00
....................         address[1]  = (unsigned int8)((sector_address>>16) & 0xff);   // 0x 00 _ _ 00 00
....................         address[2]  = (unsigned int8)((sector_address>>8) & 0xff);    // 0x 00 00 _ _ 00
....................         address[3]  = (unsigned int8)((sector_address) & 0xff);       // 0x 00 00 00 _ _
.................... 
....................         //Write enable sequence
....................         output_low(FLASH1G_CS);
....................         spi_xfer(FLASH1G,WRITE_ENABLE);
....................         output_high(FLASH1G_CS);
....................         //Write enabled
.................... 
....................         output_low(FLASH1G_CS);
....................         ///////////////////////////////////////////////////////////////////
....................         spi_xfer(FLASH1G,SECTOR_ERASE_4BYTE); //SECTOR ERASE COMAND   (0xDC)
.................... 
....................         spi_xfer(FLASH1G,address[0]);
....................         spi_xfer(FLASH1G,address[1]);
....................         spi_xfer(FLASH1G,address[2]);
....................         spi_xfer(FLASH1G,address[3]);
....................         //////////////////////////////////////////////////////////////////
.................... 
....................         output_high(FLASH1G_CS);            //take CS PIN higher back
.................... 
....................         while((status_register_flash1g() & 0x01) == 1)                //masking status bit
....................         {
....................             if(timeout_counter > 10)
....................             {
....................                 delay_ms(200);
....................             }
....................             else
....................             {
....................                 delay_ms(10);
....................             }
.................... 
....................             if(timeout_counter > 100)
....................             {
....................                 #ifdef DEBUG
....................                     fprintf(DEBUG_PORT,"flash timeout");
....................                 #endif
....................                 break;
....................             }
....................             timeout_counter++;
....................         }
....................         return;
....................     }
.................... 
....................     void subsector_32kByte_erase_flash1g(unsigned int32 subsector_address)
....................     {
....................         unsigned int8 address[4];
....................         unsigned int8 timeout_counter = 0;
.................... 
....................         address[0]  = (unsigned int8)((subsector_address>>24) & 0xff);   // 0x _ _ 00 00 00
....................         address[1]  = (unsigned int8)((subsector_address>>16) & 0xff);   // 0x 00 _ _ 00 00
....................         address[2]  = (unsigned int8)((subsector_address>>8) & 0xff);    // 0x 00 00 _ _ 00
....................         address[3]  = (unsigned int8)((subsector_address) & 0xff);       // 0x 00 00 00 _ _
.................... 
....................         //Write enable sequence
....................         output_low(FLASH1G_CS);
....................         spi_xfer(FLASH1G,WRITE_ENABLE);
....................         output_high(FLASH1G_CS);
....................         //Write enabled
.................... 
....................         output_low(FLASH1G_CS);
....................         ///////////////////////////////////////////////////////////////////
....................         spi_xfer(FLASH1G,SUBSECTOR_32KB_ERASE_4BYTE);
.................... 
....................         spi_xfer(FLASH1G,address[0]);
....................         spi_xfer(FLASH1G,address[1]);
....................         spi_xfer(FLASH1G,address[2]);
....................         spi_xfer(FLASH1G,address[3]);
....................         //////////////////////////////////////////////////////////////////
....................         output_high(FLASH1G_CS);            //take CS PIN higher back
.................... 
....................         while((status_register_flash1g() & 0x01) == 1)               //masking status bit
....................         {
....................             if(timeout_counter > 10)
....................             {
....................                 delay_ms(200);
....................             }
....................             else
....................             {
....................                 delay_ms(10);
....................             }
.................... 
....................             if(timeout_counter > 100)
....................             {
....................                 #ifdef DEBUG
....................                     fprintf(DEBUG_PORT,"flash timeout");
....................                 #endif
....................                 break;
....................             }
....................             timeout_counter++;
....................         }
....................     }
.................... 
....................     void subsector_4kByte_erase_flash1g(unsigned int32 subsector_address)//4kByte erase
....................     {
....................         unsigned int8 address[4];
....................         unsigned int8 timeout_counter = 0;
.................... 
....................         address[0]  = (unsigned int8)((subsector_address>>24) & 0xff);   // 0x _ _ 00 00 00
....................         address[1]  = (unsigned int8)((subsector_address>>16) & 0xff);   // 0x 00 _ _ 00 00
....................         address[2]  = (unsigned int8)((subsector_address>>8) & 0xff);    // 0x 00 00 _ _ 00
....................         address[3]  = (unsigned int8)((subsector_address) & 0xff);       // 0x 00 00 00 _ _
.................... 
....................         //Write enable sequence
....................         output_low(FLASH1G_CS);
....................         spi_xfer(FLASH1G,WRITE_ENABLE);
....................         output_high(FLASH1G_CS);
....................         //Write enabled
.................... 
....................         output_low(FLASH1G_CS);
....................         ///////////////////////////////////////////////////////////////////
....................         spi_xfer(FLASH1G,SUBSECTOR_4KB_ERASE_4BYTE);
.................... 
....................         spi_xfer(FLASH1G,address[0]);
....................         spi_xfer(FLASH1G,address[1]);
....................         spi_xfer(FLASH1G,address[2]);
....................         spi_xfer(FLASH1G,address[3]);
....................         //////////////////////////////////////////////////////////////////
.................... 
....................         delay_us(2);
....................         output_high(FLASH1G_CS);            //take CS PIN higher back
.................... 
....................         while((status_register_flash1g() & 0x01) == 1)               //masking status bit
....................         {
....................             if(timeout_counter > 10)
....................             {
....................                 delay_ms(200);
....................             }
....................             else
....................             {
....................                 delay_ms(10);
....................             }
.................... 
....................             if(timeout_counter > 100)
....................             {
....................                 #ifdef DEBUG
....................                     fprintf(DEBUG_PORT,"flash timeout");
....................                 #endif
....................                 break;
....................             }
....................             timeout_counter++;
....................         }
....................     }
.................... 
....................     int8 read_data_byte_flash1g(unsigned int32 read_address)
....................     {
....................         int8 read_data;
....................         unsigned int8 address[4];
.................... 
....................         address[0]  = (unsigned int8)((read_address>>24) & 0xff);   // 0x _ _ 00 00 00
....................         address[1]  = (unsigned int8)((read_address>>16) & 0xff);   // 0x 00 _ _ 00 00
....................         address[2]  = (unsigned int8)((read_address>>8) & 0xff);    // 0x 00 00 _ _ 00
....................         address[3]  = (unsigned int8)((read_address) & 0xff);       // 0x 00 00 00 _ _
.................... 
....................         output_low(FLASH1G_CS);
....................         ///////////////////////////////////////////////////////////////////
....................         spi_xfer(FLASH1G,READ_4BYTE);
.................... 
....................         spi_xfer(FLASH1G,address[0]);
....................         spi_xfer(FLASH1G,address[1]);
....................         spi_xfer(FLASH1G,address[2]);
....................         spi_xfer(FLASH1G,address[3]);
....................         read_data = spi_xfer(FLASH1G);
....................         //////////////////////////////////////////////////////////////////
.................... 
....................         delay_us(2);
....................         output_high(FLASH1G_CS);            //take CS PIN higher back
....................         return read_data;
....................     }
.................... 
....................     void read_data_bytes_flash1g(unsigned int32 read_address,int8 amount,int8 *read_data)
....................     {
....................         unsigned int8 address[4];
.................... 
....................         address[0]  = (unsigned int8)((read_address>>24) & 0xff);   // 0x _ _ 00 00 00
....................         address[1]  = (unsigned int8)((read_address>>16) & 0xff);   // 0x 00 _ _ 00 00
....................         address[2]  = (unsigned int8)((read_address>>8) & 0xff);    // 0x 00 00 _ _ 00
....................         address[3]  = (unsigned int8)((read_address) & 0xff);       // 0x 00 00 00 _ _
.................... 
....................         output_low(FLASH1G_CS);
....................         ///////////////////////////////////////////////////////////////////
....................         spi_xfer(FLASH1G,READ_4BYTE);
.................... 
....................         spi_xfer(FLASH1G,address[0]);
....................         spi_xfer(FLASH1G,address[1]);
....................         spi_xfer(FLASH1G,address[2]);
....................         spi_xfer(FLASH1G,address[3]);
....................         for(int8 i = 0; i < amount; i++)
....................         {
....................             read_data[i] = spi_xfer(FLASH1G);
....................         }
....................         //////////////////////////////////////////////////////////////////
.................... 
....................         delay_us(2);
....................         output_high(FLASH1G_CS);            //take CS PIN higher back
.................... 
....................         return;
....................     }
.................... 
....................     void write_data_byte_flash1g(unsigned int32 write_address,int8 write_data)
....................     {
....................         unsigned int8 address[4];
....................         unsigned int8 timeout_counter = 0;
.................... 
....................         //Byte extraction
....................         address[0]  = (unsigned int8)((write_address>>24) & 0xff);                     // 0x _ _ 00 00 00
....................         address[1]  = (unsigned int8)((write_address>>16) & 0xff);                     // 0x 00 _ _ 00 00
....................         address[2]  = (unsigned int8)((write_address>>8) & 0xff);                      // 0x 00 00 _ _ 00
....................         address[3]  = (unsigned int8)((write_address) & 0xff);                         // 0x 00 00 00 _ _
.................... 
....................         //Write enable sequence
....................         output_low(FLASH1G_CS);
....................         spi_xfer(FLASH1G,WRITE_ENABLE);
....................         output_high(FLASH1G_CS);
....................         //Write enabled
.................... 
....................         output_low(FLASH1G_CS);
....................         ////////////////////////////////////////////////////////////////
....................         spi_xfer(FLASH1G,PAGE_PROGRAM_4BYTE);                                               //PAGE WRITE COMAND  (0x12)
....................         spi_xfer(FLASH1G,address[0]);
....................         spi_xfer(FLASH1G,address[1]);
....................         spi_xfer(FLASH1G,address[2]);
....................         spi_xfer(FLASH1G,address[3]);
....................         spi_xfer(FLASH1G,write_data);
....................         ////////////////////////////////////////////////////////////////
.................... 
....................         output_high(FLASH1G_CS);          //take CS PIN higher back
.................... 
....................         while((status_register_flash1g() & 0x01) == 1)                                  //masking status bit
....................         {
....................             if(timeout_counter > 10)
....................             {
....................                 delay_ms(200);
....................             }
....................             else
....................             {
....................                 delay_ms(10);
....................             }
.................... 
....................             if(timeout_counter > 100)
....................             {
....................                 #ifdef DEBUG
....................                     fprintf(DEBUG_PORT,"flash timeout");
....................                 #endif
....................                 break;
....................             }
....................             timeout_counter++;
....................         }
....................         return;
....................     }
.................... 
....................     void write_data_bytes_flash1g(unsigned int32 write_address,int8 amount,int8 *write_data)
....................     {
....................         unsigned int8 address[4];
....................         unsigned int8 timeout_counter = 0;
.................... 
....................         //Byte extraction
....................         address[0]  = (unsigned int8)((write_address>>24) & 0xff);                     // 0x _ _ 00 00 00
....................         address[1]  = (unsigned int8)((write_address>>16) & 0xff);                     // 0x 00 _ _ 00 00
....................         address[2]  = (unsigned int8)((write_address>>8) & 0xff);                      // 0x 00 00 _ _ 00
....................         address[3]  = (unsigned int8)((write_address) & 0xff);                         // 0x 00 00 00 _ _
.................... 
....................         //Write enable sequence
....................         output_low(FLASH1G_CS);
....................         spi_xfer(FLASH1G,WRITE_ENABLE);
....................         output_high(FLASH1G_CS);
....................         //Write enabled
.................... 
....................         output_low(FLASH1G_CS);
....................         ////////////////////////////////////////////////////////////////
....................         spi_xfer(FLASH1G,PAGE_PROGRAM_4BYTE);                                               //PAGE WRITE COMAND  (0x12)
....................         spi_xfer(FLASH1G,address[0]);
....................         spi_xfer(FLASH1G,address[1]);
....................         spi_xfer(FLASH1G,address[2]);
....................         spi_xfer(FLASH1G,address[3]);
....................         for(int8 i = 0; i < amount; i++)
....................         {
....................             spi_xfer(FLASH1G,write_data[i]);
....................         }
....................         ////////////////////////////////////////////////////////////////
....................         output_high(FLASH1G_CS);          //take CS PIN higher back
.................... 
....................         while((status_register_flash1g() & 0x01) == 1)                                  //masking status bit
....................         {
....................             if(timeout_counter > 10)
....................             {
....................                 delay_ms(200);
....................             }
....................             else
....................             {
....................                 delay_ms(10);
....................             }
.................... 
....................             if(timeout_counter > 100)
....................             {
....................                 #ifdef DEBUG
....................                     fprintf(DEBUG_PORT,"flash timeout");
....................                 #endif
....................                 break;
....................             }
....................             timeout_counter++;
....................         }
....................         return;
....................     }
.................... #endif
.................... 
.................... #ifdef USE_FLASH128M
....................     int8 status_register_flash128m()
....................     {
....................         unsigned int8 status_reg;
....................         output_low(FLASH128M_CS);                                              //lower the CS PIN
*
0034A:  BCF    F93.3
0034C:  BCF    F8A.3
....................         spi_xfer(FLASH128M,READ_STATUS_REGISTER);                              //READ STATUS REGISTER COMAND (0x05)
0034E:  MOVLW  05
00350:  MOVWF  4B
00352:  MOVLW  08
00354:  MOVWF  4C
00356:  MOVLW  01
00358:  MOVWF  4D
0035A:  RCALL  0312
....................         status_reg = spi_xfer(FLASH128M);
0035C:  MOVLW  01
0035E:  MOVWF  4B
00360:  MOVLW  08
00362:  MOVWF  4C
00364:  MOVLW  01
00366:  MOVWF  4D
00368:  RCALL  0312
0036A:  MOVFF  01,3F
....................         output_high(FLASH128M_CS);                                             //take CS PIN higher back
0036E:  BCF    F93.3
00370:  BSF    F8A.3
....................         #ifdef DEBUG
....................             if((status_reg & 0x01) == true)                                    //masking status bit
00372:  MOVF   3F,W
00374:  ANDLW  01
00376:  SUBLW  01
00378:  BNZ   0388
....................             {
....................                 fprintf(DEBUG_PORT,"128Mbit flash busy\n\r");
0037A:  MOVLW  06
0037C:  MOVWF  FF6
0037E:  MOVLW  00
00380:  MOVWF  FF7
00382:  MOVLW  00
00384:  MOVWF  FF8
00386:  RCALL  02E0
....................             }
....................         #endif
....................         return status_reg;
00388:  MOVFF  3F,01
0038C:  RETURN 0
....................     }
.................... 
....................     int8 read_id_flash128m()//->success:True,fail:false
....................     {
....................         int8 chip_id[21];
....................         output_low(FLASH128M_CS);
*
003D0:  BCF    F93.3
003D2:  BCF    F8A.3
....................         for (int8 i = 0; i <= 20; i++)
003D4:  CLRF   48
003D6:  MOVF   48,W
003D8:  SUBLW  14
003DA:  BNC   0452
....................         {
....................             if (i == 0)
003DC:  MOVF   48,F
003DE:  BNZ   0410
....................             {
....................                 chip_id[i] = spi_xfer(FLASH128M,READ_ID);
003E0:  CLRF   03
003E2:  MOVF   48,W
003E4:  ADDLW  33
003E6:  MOVWF  FE9
003E8:  MOVLW  00
003EA:  ADDWFC 03,W
003EC:  MOVWF  FEA
003EE:  MOVLW  9F
003F0:  MOVWF  4B
003F2:  MOVLW  08
003F4:  MOVWF  4C
003F6:  MOVLW  01
003F8:  MOVWF  4D
003FA:  RCALL  0312
003FC:  MOVFF  01,FEF
....................                 #ifdef DEBUG
....................                     fprintf(DEBUG_PORT,"Read ID:");
00400:  MOVLW  1C
00402:  MOVWF  FF6
00404:  MOVLW  00
00406:  MOVWF  FF7
00408:  MOVLW  00
0040A:  MOVWF  FF8
0040C:  RCALL  02E0
....................                 #endif
....................             }
0040E:  BRA    044E
....................             else
....................             {
....................                 chip_id[i] = spi_xfer(FLASH128M,0x00);
00410:  CLRF   03
00412:  MOVF   48,W
00414:  ADDLW  33
00416:  MOVWF  FE9
00418:  MOVLW  00
0041A:  ADDWFC 03,W
0041C:  MOVWF  FEA
0041E:  CLRF   4B
00420:  MOVLW  08
00422:  MOVWF  4C
00424:  MOVLW  01
00426:  MOVWF  4D
00428:  RCALL  0312
0042A:  MOVFF  01,FEF
....................                 #ifdef DEBUG
....................                     fprintf(DEBUG_PORT,"%x ",chip_id[i]);
0042E:  CLRF   03
00430:  MOVF   48,W
00432:  ADDLW  33
00434:  MOVWF  FE9
00436:  MOVLW  00
00438:  ADDWFC 03,W
0043A:  MOVWF  FEA
0043C:  MOVFF  FEF,4A
00440:  MOVLW  57
00442:  MOVWF  4B
00444:  RCALL  038E
00446:  MOVLW  20
00448:  BTFSS  F9E.4
0044A:  BRA    0448
0044C:  MOVWF  FAD
....................                 #endif
....................             }
0044E:  INCF   48,F
00450:  BRA    03D6
....................         }
....................         output_high(FLASH128M_CS);
00452:  BCF    F93.3
00454:  BSF    F8A.3
....................         #ifdef DEBUG
....................             fprintf(DEBUG_PORT,"\r\n");
00456:  MOVLW  0D
00458:  BTFSS  F9E.4
0045A:  BRA    0458
0045C:  MOVWF  FAD
0045E:  MOVLW  0A
00460:  BTFSS  F9E.4
00462:  BRA    0460
00464:  MOVWF  FAD
....................         #endif
....................         //chip id check
....................         if(chip_id[1] == 0x20)
00466:  MOVF   34,W
00468:  SUBLW  20
0046A:  BNZ   0482
....................         {
....................             #ifdef DEBUG
....................                 fprintf(DEBUG_PORT,"flash connect OK\r\n");
0046C:  MOVLW  26
0046E:  MOVWF  FF6
00470:  MOVLW  00
00472:  MOVWF  FF7
00474:  MOVLW  00
00476:  MOVWF  FF8
00478:  RCALL  02E0
....................             #endif
....................             return true;
0047A:  MOVLW  01
0047C:  MOVWF  01
0047E:  BRA    0494
....................         }
00480:  BRA    0494
....................         else
....................         {
....................             #ifdef DEBUG
....................                 fprintf(DEBUG_PORT,"flash not connect\r\n");
00482:  MOVLW  3A
00484:  MOVWF  FF6
00486:  MOVLW  00
00488:  MOVWF  FF7
0048A:  MOVLW  00
0048C:  MOVWF  FF8
0048E:  RCALL  02E0
....................             #endif
....................             return false;
00490:  MOVLW  00
00492:  MOVWF  01
....................         }
00494:  GOTO   08C2 (RETURN)
....................     }
.................... 
....................     void sector_erase_flash128m(unsigned int32 sector_address)
*
005AC:  CLRF   3A
....................     {
....................         unsigned int8 address[3];
....................         unsigned int8 timeout_counter = 0;
.................... 
....................         address[0]  = (unsigned int8)((sector_address>>16) & 0xff);   // 0x 00 _ _ 00 00
005AE:  MOVFF  35,37
....................         address[1]  = (unsigned int8)((sector_address>>8) & 0xff);    // 0x 00 00 _ _ 00
005B2:  MOVFF  34,38
....................         address[2]  = (unsigned int8)((sector_address) & 0xff);       // 0x 00 00 00 _ _
005B6:  MOVFF  33,39
.................... 
....................         //Write enable sequence
....................         output_low(FLASH128M_CS);
005BA:  BCF    F93.3
005BC:  BCF    F8A.3
....................         spi_xfer(FLASH128M,WRITE_ENABLE);
005BE:  MOVLW  06
005C0:  MOVWF  4B
005C2:  MOVLW  08
005C4:  MOVWF  4C
005C6:  MOVLW  01
005C8:  MOVWF  4D
005CA:  RCALL  0312
....................         output_high(FLASH128M_CS);
005CC:  BCF    F93.3
005CE:  BSF    F8A.3
....................         //Write enabled
.................... 
....................         delay_us(2);
005D0:  MOVLW  02
005D2:  MOVWF  00
005D4:  DECFSZ 00,F
005D6:  BRA    05D4
005D8:  NOP   
.................... 
....................         output_low(FLASH128M_CS);
005DA:  BCF    F93.3
005DC:  BCF    F8A.3
....................         ///////////////////////////////////////////////////////////////////
....................         spi_xfer(FLASH128M,SECTOR_ERASE); //SECTOR ERASE COMAND   (0xD8)
005DE:  MOVLW  D8
005E0:  MOVWF  4B
005E2:  MOVLW  08
005E4:  MOVWF  4C
005E6:  MOVLW  01
005E8:  MOVWF  4D
005EA:  RCALL  0312
.................... 
....................         spi_xfer(FLASH128M,address[0]);
005EC:  MOVFF  37,4B
005F0:  MOVLW  08
005F2:  MOVWF  4C
005F4:  MOVLW  01
005F6:  MOVWF  4D
005F8:  RCALL  0312
....................         spi_xfer(FLASH128M,address[1]);
005FA:  MOVFF  38,4B
005FE:  MOVLW  08
00600:  MOVWF  4C
00602:  MOVLW  01
00604:  MOVWF  4D
00606:  RCALL  0312
....................         spi_xfer(FLASH128M,address[2]);
00608:  MOVFF  39,4B
0060C:  MOVLW  08
0060E:  MOVWF  4C
00610:  MOVLW  01
00612:  MOVWF  4D
00614:  RCALL  0312
....................         //////////////////////////////////////////////////////////////////
.................... 
....................         output_high(FLASH128M_CS);            //take CS PIN higher back
00616:  BCF    F93.3
00618:  BSF    F8A.3
.................... 
....................         while((status_register_flash128m() & 0x01) == 1)             //masking status bit
0061A:  RCALL  034A
0061C:  MOVF   01,W
0061E:  ANDLW  01
00620:  SUBLW  01
00622:  BNZ   0652
....................         {
....................             if(timeout_counter > 10)
00624:  MOVF   3A,W
00626:  SUBLW  0A
00628:  BC    0632
....................             {
....................                 delay_ms(200);
0062A:  MOVLW  C8
0062C:  MOVWF  3F
0062E:  RCALL  0584
....................             }
00630:  BRA    0638
....................             else
....................             {
....................                 delay_ms(10);
00632:  MOVLW  0A
00634:  MOVWF  3F
00636:  RCALL  0584
....................             }
.................... 
....................             if(timeout_counter > 100)
00638:  MOVF   3A,W
0063A:  SUBLW  64
0063C:  BC    064E
....................             {
....................                 #ifdef DEBUG
....................                     fprintf(DEBUG_PORT,"flash timeout");
0063E:  MOVLW  4E
00640:  MOVWF  FF6
00642:  MOVLW  00
00644:  MOVWF  FF7
00646:  MOVLW  00
00648:  MOVWF  FF8
0064A:  RCALL  02E0
....................                 #endif
....................                 break;
0064C:  BRA    0652
....................             }
....................             timeout_counter++;
0064E:  INCF   3A,F
00650:  BRA    061A
....................         }
....................         return;
00652:  GOTO   09F6 (RETURN)
....................     }
.................... 
....................     void subsector_32kByte_erase_flash128m(unsigned int32 subsector_address)
....................     {
....................         unsigned int8 address[3];
....................         unsigned int8 timeout_counter = 0;
.................... 
....................         address[0]  = (unsigned int8)((subsector_address>>16) & 0xff);   // 0x 00 _ _ 00 00
....................         address[1]  = (unsigned int8)((subsector_address>>8) & 0xff);    // 0x 00 00 _ _ 00
....................         address[2]  = (unsigned int8)((subsector_address) & 0xff);       // 0x 00 00 00 _ _
.................... 
....................         //Write enable sequence
....................         output_low(FLASH128M_CS);
....................         spi_xfer(FLASH128M,WRITE_ENABLE);
....................         output_high(FLASH128M_CS);
....................         //Write enabled
.................... 
....................         output_low(FLASH128M_CS);
....................         ///////////////////////////////////////////////////////////////////
....................         spi_xfer(FLASH128M,SUBSECTOR_32KB_ERASE);
.................... 
....................         spi_xfer(FLASH128M,address[0]);
....................         spi_xfer(FLASH128M,address[1]);
....................         spi_xfer(FLASH128M,address[2]);
....................         //////////////////////////////////////////////////////////////////
.................... 
....................         output_high(FLASH128M_CS);            //take CS PIN higher back
.................... 
....................         while((status_register_flash128m() & 0x01) == 1)             //masking status bit
....................         {
....................             if(timeout_counter > 10)
....................             {
....................                 delay_ms(200);
....................             }
....................             else
....................             {
....................                 delay_ms(10);
....................             }
.................... 
....................             if(timeout_counter > 100)
....................             {
....................                 #ifdef DEBUG
....................                     fprintf(DEBUG_PORT,"flash timeout");
....................                 #endif
....................                 break;
....................             }
....................             timeout_counter++;
....................         }
.................... 
....................     }
.................... 
....................     void subsector_4kByte_erase_flash128m(unsigned int32 subsector_address)
....................     {
....................         unsigned int8 address[3];
....................         unsigned int8 timeout_counter = 0;
.................... 
....................         address[0]  = (unsigned int8)((subsector_address>>16) & 0xff);   // 0x 00 _ _ 00 00
....................         address[1]  = (unsigned int8)((subsector_address>>8) & 0xff);    // 0x 00 00 _ _ 00
....................         address[2]  = (unsigned int8)((subsector_address) & 0xff);       // 0x 00 00 00 _ _
.................... 
....................         //Write enable sequence
....................         output_low(FLASH128M_CS);
....................         //delay_ms(2);
....................         spi_xfer(FLASH128M,WRITE_ENABLE);
....................         output_high(FLASH128M_CS);
....................         //Write enabled
.................... 
....................         delay_us(2);
.................... 
....................         output_low(FLASH128M_CS);
....................         ///////////////////////////////////////////////////////////////////
....................         spi_xfer(FLASH128M,SUBSECTOR_4KB_ERASE);
.................... 
....................         spi_xfer(FLASH128M,address[0]);
....................         spi_xfer(FLASH128M,address[1]);
....................         spi_xfer(FLASH128M,address[2]);
....................         //////////////////////////////////////////////////////////////////
.................... 
....................         output_high(FLASH128M_CS);            //take CS PIN higher back
.................... 
....................         while((status_register_flash128m() & 0x01) == 1)             //masking status bit
....................         {
....................             if(timeout_counter > 10)
....................             {
....................                 delay_ms(200);
....................             }
....................             else
....................             {
....................                 delay_ms(10);
....................             }
.................... 
....................             if(timeout_counter > 100)
....................             {
....................                 #ifdef DEBUG
....................                     fprintf(DEBUG_PORT,"flash timeout");
....................                 #endif
....................                 break;
....................             }
....................             timeout_counter++;
....................         }
....................     }
.................... 
....................     int8 read_data_byte_flash128m(unsigned int32 read_address)
....................     {
....................         int8 read_data;
....................         unsigned int8 address[3];
.................... 
....................         address[0]  = (unsigned int8)((read_address>>16) & 0xff);   // 0x 00 _ _ 00 00
....................         address[1]  = (unsigned int8)((read_address>>8) & 0xff);    // 0x 00 00 _ _ 00
....................         address[2]  = (unsigned int8)((read_address) & 0xff);       // 0x 00 00 00 _ _
.................... 
....................         output_low(FLASH128M_CS);
....................         ///////////////////////////////////////////////////////////////////
....................         spi_xfer(FLASH128M,READ);
.................... 
....................         spi_xfer(FLASH128M,address[0]);
....................         spi_xfer(FLASH128M,address[1]);
....................         spi_xfer(FLASH128M,address[2]);
....................         read_data = spi_xfer(FLASH128M);
....................         //////////////////////////////////////////////////////////////////
.................... 
....................         delay_us(2);
....................         output_high(FLASH128M_CS);            //take CS PIN higher back
.................... 
....................         return read_data;
....................     }
.................... 
....................     void read_data_bytes_flash128m(unsigned int32 read_address, int8 amount, int8 *read_data)
....................     {
....................         unsigned int8 address[3];
.................... 
....................         address[0]  = (unsigned int8)((read_address>>16) & 0xff);   // 0x 00 _ _ 00 00
*
0071C:  MOVFF  36,3B
....................         address[1]  = (unsigned int8)((read_address>>8) & 0xff);    // 0x 00 00 _ _ 00
00720:  MOVFF  35,3C
....................         address[2]  = (unsigned int8)((read_address) & 0xff);       // 0x 00 00 00 _ _
00724:  MOVFF  34,3D
.................... 
....................         output_low(FLASH128M_CS);
00728:  BCF    F93.3
0072A:  BCF    F8A.3
....................         ///////////////////////////////////////////////////////////////////
....................         spi_xfer(FLASH128M,READ);
0072C:  MOVLW  03
0072E:  MOVWF  4B
00730:  MOVLW  08
00732:  MOVWF  4C
00734:  MOVLW  01
00736:  MOVWF  4D
00738:  RCALL  0312
.................... 
....................         spi_xfer(FLASH128M,address[0]);
0073A:  MOVFF  3B,4B
0073E:  MOVLW  08
00740:  MOVWF  4C
00742:  MOVLW  01
00744:  MOVWF  4D
00746:  RCALL  0312
....................         spi_xfer(FLASH128M,address[1]);
00748:  MOVFF  3C,4B
0074C:  MOVLW  08
0074E:  MOVWF  4C
00750:  MOVLW  01
00752:  MOVWF  4D
00754:  RCALL  0312
....................         spi_xfer(FLASH128M,address[2]);
00756:  MOVFF  3D,4B
0075A:  MOVLW  08
0075C:  MOVWF  4C
0075E:  MOVLW  01
00760:  MOVWF  4D
00762:  RCALL  0312
....................         for(int8 i = 0; i < amount; i++)
00764:  CLRF   3E
00766:  MOVF   38,W
00768:  SUBWF  3E,W
0076A:  BC    078E
....................         {
....................             read_data[i] = spi_xfer(FLASH128M);
0076C:  MOVF   3E,W
0076E:  ADDWF  39,W
00770:  MOVWF  FE9
00772:  MOVLW  00
00774:  ADDWFC 3A,W
00776:  MOVWF  FEA
00778:  MOVLW  01
0077A:  MOVWF  4B
0077C:  MOVLW  08
0077E:  MOVWF  4C
00780:  MOVLW  01
00782:  MOVWF  4D
00784:  RCALL  0312
00786:  MOVFF  01,FEF
0078A:  INCF   3E,F
0078C:  BRA    0766
....................         }
....................         //////////////////////////////////////////////////////////////////
.................... 
....................         delay_us(2);
0078E:  MOVLW  02
00790:  MOVWF  00
00792:  DECFSZ 00,F
00794:  BRA    0792
00796:  NOP   
....................         output_high(FLASH128M_CS);            //take CS PIN higher back
00798:  BCF    F93.3
0079A:  BSF    F8A.3
.................... 
....................         return;
0079C:  GOTO   0A72 (RETURN)
....................     }
.................... 
....................     void write_data_byte_flash128m(unsigned int32 write_address, int8 write_data)
....................     {
....................         unsigned int8 address[3];
....................         unsigned int8 timeout_counter = 0;
....................         //Byte extraction
....................         address[0]  = (unsigned int8)((write_address>>16) & 0xff);                     // 0x 00 _ _ 00 00
....................         address[1]  = (unsigned int8)((write_address>>8) & 0xff);                      // 0x 00 00 _ _ 00
....................         address[2]  = (unsigned int8)((write_address) & 0xff);                         // 0x 00 00 00 _ _
.................... 
....................         //Write enable sequence
....................         output_low(FLASH128M_CS);
....................         spi_xfer(FLASH128M,WRITE_ENABLE);
....................         output_high(FLASH128M_CS);
....................         //Write enabled
.................... 
....................         output_low(FLASH128M_CS);
....................         ////////////////////////////////////////////////////////////////
....................         spi_xfer(FLASH128M,PAGE_PROGRAM);                                              //PAGE WRITE COMAND  (0x02)
....................         spi_xfer(FLASH128M,address[0]);
....................         spi_xfer(FLASH128M,address[1]);
....................         spi_xfer(FLASH128M,address[2]);
....................         spi_xfer(FLASH128M,write_data);
....................         ////////////////////////////////////////////////////////////////
.................... 
....................         output_high(FLASH128M_CS);          //take CS PIN higher back
.................... 
....................         while((status_register_flash128m() & 0x01) == 1)                               //masking status bit
....................         {
....................             if(timeout_counter > 10)
....................             {
....................                 delay_ms(200);
....................             }
....................             else
....................             {
....................                 delay_ms(10);
....................             }
.................... 
....................             if(timeout_counter > 100)
....................             {
....................                 #ifdef DEBUG
....................                     fprintf(DEBUG_PORT,"flash timeout");
....................                 #endif
....................                 break;
....................             }
....................             timeout_counter++;
....................         }
....................         //delay_us(10);
.................... 
....................         return;
....................     }
.................... 
....................     void write_data_bytes_flash128m(unsigned int32 write_address, int8 amount, int8 *write_data)
*
00656:  CLRF   3D
....................     {
....................         unsigned int8 address[3];
....................         unsigned int8 timeout_counter = 0;
....................         //Byte extraction
....................         address[0]  = (unsigned int8)((write_address>>16) & 0xff);                     // 0x 00 _ _ 00 00
00658:  MOVFF  35,3A
....................         address[1]  = (unsigned int8)((write_address>>8) & 0xff);                      // 0x 00 00 _ _ 00
0065C:  MOVFF  34,3B
....................         address[2]  = (unsigned int8)((write_address) & 0xff);                         // 0x 00 00 00 _ _
00660:  MOVFF  33,3C
.................... 
....................         //Write enable sequence
....................         output_low(FLASH128M_CS);
00664:  BCF    F93.3
00666:  BCF    F8A.3
....................         spi_xfer(FLASH128M,WRITE_ENABLE);
00668:  MOVLW  06
0066A:  MOVWF  4B
0066C:  MOVLW  08
0066E:  MOVWF  4C
00670:  MOVLW  01
00672:  MOVWF  4D
00674:  RCALL  0312
....................         output_high(FLASH128M_CS);
00676:  BCF    F93.3
00678:  BSF    F8A.3
....................         //Write enabled
.................... 
....................         output_low(FLASH128M_CS);
0067A:  BCF    F93.3
0067C:  BCF    F8A.3
....................         ////////////////////////////////////////////////////////////////
....................         spi_xfer(FLASH128M,PAGE_PROGRAM);                                              //PAGE WRITE COMAND  (0x02)
0067E:  MOVLW  02
00680:  MOVWF  4B
00682:  MOVLW  08
00684:  MOVWF  4C
00686:  MOVLW  01
00688:  MOVWF  4D
0068A:  RCALL  0312
....................         spi_xfer(FLASH128M,address[0]);
0068C:  MOVFF  3A,4B
00690:  MOVLW  08
00692:  MOVWF  4C
00694:  MOVLW  01
00696:  MOVWF  4D
00698:  RCALL  0312
....................         spi_xfer(FLASH128M,address[1]);
0069A:  MOVFF  3B,4B
0069E:  MOVLW  08
006A0:  MOVWF  4C
006A2:  MOVLW  01
006A4:  MOVWF  4D
006A6:  RCALL  0312
....................         spi_xfer(FLASH128M,address[2]);
006A8:  MOVFF  3C,4B
006AC:  MOVLW  08
006AE:  MOVWF  4C
006B0:  MOVLW  01
006B2:  MOVWF  4D
006B4:  RCALL  0312
....................         for(int8 i = 0; i < amount; i++)
006B6:  CLRF   3E
006B8:  MOVF   37,W
006BA:  SUBWF  3E,W
006BC:  BC    06DC
....................         {
....................             spi_xfer(FLASH128M,write_data[i]);
006BE:  MOVF   3E,W
006C0:  ADDWF  38,W
006C2:  MOVWF  FE9
006C4:  MOVLW  00
006C6:  ADDWFC 39,W
006C8:  MOVWF  FEA
006CA:  MOVFF  FEF,4B
006CE:  MOVLW  08
006D0:  MOVWF  4C
006D2:  MOVLW  01
006D4:  MOVWF  4D
006D6:  RCALL  0312
006D8:  INCF   3E,F
006DA:  BRA    06B8
....................         }
....................         ////////////////////////////////////////////////////////////////
....................         output_high(FLASH128M_CS);          //take CS PIN higher back
006DC:  BCF    F93.3
006DE:  BSF    F8A.3
.................... 
....................         while((status_register_flash128m() & 0x01) == 1)                               //masking status bit
006E0:  RCALL  034A
006E2:  MOVF   01,W
006E4:  ANDLW  01
006E6:  SUBLW  01
006E8:  BNZ   0718
....................         {
....................             if(timeout_counter > 10)
006EA:  MOVF   3D,W
006EC:  SUBLW  0A
006EE:  BC    06F8
....................             {
....................                 delay_ms(200);
006F0:  MOVLW  C8
006F2:  MOVWF  3F
006F4:  RCALL  0584
....................             }
006F6:  BRA    06FE
....................             else
....................             {
....................                 delay_ms(10);
006F8:  MOVLW  0A
006FA:  MOVWF  3F
006FC:  RCALL  0584
....................             }
.................... 
....................             if(timeout_counter > 100)
006FE:  MOVF   3D,W
00700:  SUBLW  64
00702:  BC    0714
....................             {
....................                 #ifdef DEBUG
....................                     fprintf(DEBUG_PORT,"flash timeout");
00704:  MOVLW  86
00706:  MOVWF  FF6
00708:  MOVLW  00
0070A:  MOVWF  FF7
0070C:  MOVLW  00
0070E:  MOVWF  FF8
00710:  RCALL  02E0
....................                 #endif
....................                 break;
00712:  BRA    0718
....................             }
....................             timeout_counter++;
00714:  INCF   3D,F
00716:  BRA    06E0
....................         }
....................         return;
00718:  GOTO   0A26 (RETURN)
....................     }
.................... 
.................... #endif
.................... 
.................... 
.................... 
.................... 
.................... /*
.................... // ABŃüīÕć║ÕŖøŃüĢŃéīŃéŗ’╝łµŁŻÕĖĖ’╝ē
.................... void main()
.................... {
....................     int8 get_data;
.................... 
....................     fprintf(PORT1, "==Program Start==\r\n");
.................... 
....................     fprintf(PORT1, "Flash Setting Starting...\r\n");
....................     flash_setting();
....................     fprintf(PORT1, "Flash Setting done.\r\n");
.................... 
....................     fprintf(PORT1, "Status Register Flash128M Starting...\r\n");
....................     status_register_flash128m();
....................     fprintf(PORT1, "Status Register Flash128M done.\r\n");
.................... 
....................     fprintf(PORT1, "Read ID Flash128M Starting...\r\n");
....................     read_id_flash128m();
....................     fprintf(PORT1, "Read ID Flash128M done.\r\n");
.................... 
....................     fprintf(PORT1, "Sector Erase Flash128M Starting...\r\n");
....................     sector_erase_flash128m(0000);
....................     fprintf(PORT1, "Sector Erase Flash128M done.\r\n");
.................... 
....................     fprintf(PORT1, "Write Data Flash128M Starting...\r\n");
....................     write_data_byte_flash128m(0x00, 0xAB);
....................     fprintf(PORT1, "Write Data Flash128M done.\r\n");
.................... 
....................     fprintf(PORT1, "Read Data Flash128M Starting...\r\n");
....................     get_data = read_data_byte_flash128m(0x0000);
....................     fprintf(PORT1, "Read Data(Hex): %X\r\n", get_data);
....................     fprintf(PORT1, "Read Data Flash128M done.\r\n");
.................... 
.................... }
.................... */
.................... 
.................... /*
.................... // NOIHSŃüīĶĪ©ńż║ŃüĢŃéīŃéŗŃééŃü« (µŁŻÕĖĖ’╝ē
.................... void main()
.................... {
....................     // ŃüōŃüōŃü½µøĖŃüŹĶŠ╝Ńü┐Ńü¤Ńüäµ¢ćÕŁŚÕłŚŃéÆµīćÕ«ÜŃüŚŃü”ŃüÅŃüĀŃüĢŃüä’╝ł5µ¢ćÕŁŚń©ŗÕ║”µÄ©Õź©’╝ē
....................     char write_str[] = "NOIHS";
.................... 
....................     // Õ«ÜńŠ®ŃüŚŃü¤µ¢ćÕŁŚÕłŚŃéÆĶĪ©ńż║
....................     fprintf(PORT1, "String to Write: %s\r\n", write_str);
.................... 
....................     // µ¢ćÕŁŚÕłŚŃü«ķĢĘŃüĢŃéÆĶ©łń«Ś’╝łńĄéń½»Ńü«ŃāīŃā½µ¢ćÕŁŚÕłåŃéÆķÖżŃüÅ’╝ē
....................     int8 data_len = sizeof(write_str) - 1;
.................... 
....................     // Ķ¬ŁŃü┐Õć║ŃüŚŃü¤ŃāćŃā╝Ńé┐ŃéÆµĀ╝ń┤ŹŃüÖŃéŗŃāÉŃāāŃāĢŃéĪ’╝łÕ░æŃüŚÕż¦ŃüŹŃéüŃü½ńó║õ┐Ø’╝ē
....................     int8 read_buf[20];
....................     int8 i;
.................... 
....................     fprintf(PORT1, "==Program Start==\r\n");
.................... 
....................     fprintf(PORT1, "Flash Setting Starting...\r\n");
....................     flash_setting();
....................     fprintf(PORT1, "Flash Setting done.\r\n");
.................... 
....................     fprintf(PORT1, "Status Register Flash128M Starting...\r\n");
....................     status_register_flash128m();
....................     fprintf(PORT1, "Status Register Flash128M done.\r\n");
.................... 
....................     fprintf(PORT1, "Read ID Flash128M Starting...\r\n");
....................     read_id_flash128m();
....................     fprintf(PORT1, "Read ID Flash128M done.\r\n");
.................... 
....................     fprintf(PORT1, "Sector Erase Flash128M Starting...\r\n");
....................     // ŃéóŃāēŃā¼Ńé╣ 0x0000 ŃéÆÕÉ½ŃéĆŃé╗Ńé»Ńé┐ŃéÆµČłÕÄ╗
....................     sector_erase_flash128m(0x0000);
....................     fprintf(PORT1, "Sector Erase Flash128M done.\r\n");
.................... 
....................     fprintf(PORT1, "Write Data Flash128M Starting...\r\n");
.................... 
....................     // µ¢ćÕŁŚÕłŚŃü«µøĖŃüŹĶŠ╝Ńü┐
....................     fprintf(PORT1, "Writing String: %s (Length: %u)\r\n", write_str, data_len);
....................     // (ŃéóŃāēŃā¼Ńé╣, ķĢĘŃüĢ, ŃāćŃā╝Ńé┐ŃāØŃéżŃā│Ńé┐)
....................     write_data_bytes_flash128m(0x0000, data_len, (int8*)write_str);
.................... 
....................     fprintf(PORT1, "Write Data Flash128M done.\r\n");
.................... 
....................     fprintf(PORT1, "Read Data Flash128M Starting...\r\n");
.................... 
....................     // Ķ¬ŁŃü┐Õć║ŃüŚŃāÉŃāāŃāĢŃéĪŃéÆõĖĆµŚ”0(ŃāīŃā½µ¢ćÕŁŚ)Ńü¦Ńé»Ńā¬ŃéóŃüŚŃü”ŃüŖŃüÅ
....................     for(i = 0; i < sizeof(read_buf); i++)
....................     {
....................         read_buf[i] = 0;
....................     }
.................... 
....................     // ŃāćŃā╝Ńé┐Ńü«Ķ¬ŁŃü┐Õć║ŃüŚ
....................     // (ŃéóŃāēŃā¼Ńé╣, ķĢĘŃüĢ, ŃāćŃā╝Ńé┐µĀ╝ń┤ŹÕģłŃāØŃéżŃā│Ńé┐)
....................     read_data_bytes_flash128m(0x0000, data_len, read_buf);
.................... 
....................     // ńĄÉµ×£Ńü«ĶĪ©ńż║
....................     // %s Ńü¦µ¢ćÕŁŚÕłŚŃü©ŃüŚŃü”ĶĪ©ńż║
....................     fprintf(PORT1, "Read Data(String): %s\r\n", read_buf);
.................... 
....................     // 1ŃāÉŃéżŃāłŃüÜŃüżHEXŃü¦ĶĪ©ńż║ŃüŚŃü”Ķ®│ń┤░ńó║Ķ¬Ź
....................     fprintf(PORT1, "Read Data(Hex): ");
....................     for(i = 0; i < data_len; i++)
....................     {
....................         fprintf(PORT1, "%02X ", read_buf[i]);
....................     }
....................     fprintf(PORT1, "\r\n");
.................... 
....................     fprintf(PORT1, "Read Data Flash128M done.\r\n");
.................... }
.................... */
.................... 
.................... 
.................... // ŃéŁŃā╝Ńā£Ńā╝ŃāēÕģźÕŖøŃéÆÕÅŚŃüæõ╗śŃüæ (µŁŻÕĖĖ)
.................... void main()
*
007A0:  CLRF   FF8
007A2:  BCF    FD0.7
007A4:  MOVLB  E
007A6:  MOVLW  55
007A8:  MOVWF  F7E
007AA:  MOVLW  AA
007AC:  MOVWF  F7E
007AE:  BCF    F66.6
007B0:  MOVLW  F8
007B2:  MOVWF  x2A
007B4:  MOVLW  F5
007B6:  MOVWF  x2B
007B8:  MOVLW  F8
007BA:  MOVWF  x2C
007BC:  MOVLW  F9
007BE:  MOVWF  x2D
007C0:  MOVLW  20
007C2:  MOVWF  x1D
007C4:  MOVLW  30
007C6:  MOVWF  x22
007C8:  MOVLW  20
007CA:  MOVWF  x24
007CC:  MOVLW  01
007CE:  MOVWF  x25
007D0:  MOVLW  55
007D2:  MOVWF  F7E
007D4:  MOVLW  AA
007D6:  MOVWF  F7E
007D8:  BSF    F66.6
007DA:  CLRF   F9B
007DC:  CLRF   F64
007DE:  CLRF   F65
007E0:  CLRF   F66
007E2:  MOVLW  02
007E4:  MOVWF  FD3
007E6:  BSF    F67.3
007E8:  MOVLW  A0
007EA:  MOVWF  FAF
007EC:  MOVLW  01
007EE:  MOVLB  F
007F0:  MOVWF  x30
007F2:  MOVLW  A6
007F4:  MOVWF  FAC
007F6:  MOVLW  90
007F8:  MOVWF  FAB
007FA:  BSF    x31.3
007FC:  MOVLW  A0
007FE:  MOVWF  x1F
00800:  MOVLW  01
00802:  MOVWF  x20
00804:  MOVLW  A6
00806:  MOVWF  x32
00808:  MOVLW  90
0080A:  MOVWF  x33
0080C:  BSF    x2D.3
0080E:  MOVLW  A0
00810:  MOVWF  x2B
00812:  MOVLW  01
00814:  MOVWF  x2C
00816:  MOVLW  A6
00818:  MOVWF  x2E
0081A:  MOVLW  90
0081C:  MOVWF  x2F
0081E:  MOVLB  E
00820:  BSF    xFD.3
00822:  MOVLW  A0
00824:  MOVWF  xFB
00826:  MOVLW  01
00828:  MOVWF  xFC
0082A:  MOVLW  A6
0082C:  MOVWF  xFE
0082E:  MOVLW  90
00830:  MOVWF  xFF
00832:  BSF    F93.5
00834:  BCF    F93.4
00836:  BCF    F93.2
00838:  BCF    F8A.2
0083A:  CLRF   05
0083C:  CLRF   04
0083E:  CLRF   xD9
00840:  CLRF   xDA
00842:  CLRF   xCE
00844:  CLRF   xCF
00846:  CLRF   xD0
00848:  CLRF   xD1
0084A:  CLRF   xD2
0084C:  CLRF   xD3
0084E:  CLRF   xD4
00850:  CLRF   xD5
00852:  CLRF   x45
00854:  CLRF   x46
00856:  CLRF   x47
00858:  BCF    x8D.7
0085A:  BCF    x8D.6
0085C:  BCF    x8D.5
0085E:  MOVLB  F
00860:  CLRF   x53
00862:  CLRF   x38
00864:  CLRF   x37
.................... {
....................     // ÕģźÕŖøńö©Ńü©Ķ¬ŁŃü┐Õć║ŃüŚńö©Ńü«ŃāÉŃāāŃāĢŃéĪ
....................     char write_str[21];
....................     int8 read_buf[21];
.................... 
....................     int8 data_len;
....................     int8 i;
....................     char c;
.................... 
....................     fprintf(PORT1, "==Program Start==\r\n");
00866:  MOVLW  94
00868:  MOVWF  FF6
0086A:  MOVLW  00
0086C:  MOVWF  FF7
0086E:  MOVLW  00
00870:  MOVWF  FF8
00872:  MOVLB  0
00874:  RCALL  02E0
.................... 
....................     fprintf(PORT1, "Flash Setting Starting...\r\n");
00876:  MOVLW  A8
00878:  MOVWF  FF6
0087A:  MOVLW  00
0087C:  MOVWF  FF7
0087E:  MOVLW  00
00880:  MOVWF  FF8
00882:  RCALL  02E0
....................     flash_setting();
00884:  BRA    030A
....................     fprintf(PORT1, "Flash Setting done.\r\n");
00886:  MOVLW  C4
00888:  MOVWF  FF6
0088A:  MOVLW  00
0088C:  MOVWF  FF7
0088E:  MOVLW  00
00890:  MOVWF  FF8
00892:  RCALL  02E0
.................... 
....................     fprintf(PORT1, "Status Register Flash128M Starting...\r\n");
00894:  MOVLW  DA
00896:  MOVWF  FF6
00898:  MOVLW  00
0089A:  MOVWF  FF7
0089C:  MOVLW  00
0089E:  MOVWF  FF8
008A0:  RCALL  02E0
....................     status_register_flash128m();
008A2:  RCALL  034A
....................     fprintf(PORT1, "Status Register Flash128M done.\r\n");
008A4:  MOVLW  02
008A6:  MOVWF  FF6
008A8:  MOVLW  01
008AA:  MOVWF  FF7
008AC:  MOVLW  00
008AE:  MOVWF  FF8
008B0:  RCALL  02E0
.................... 
....................     fprintf(PORT1, "Read ID Flash128M Starting...\r\n");
008B2:  MOVLW  24
008B4:  MOVWF  FF6
008B6:  MOVLW  01
008B8:  MOVWF  FF7
008BA:  MOVLW  00
008BC:  MOVWF  FF8
008BE:  RCALL  02E0
....................     if(read_id_flash128m())
008C0:  BRA    03D0
008C2:  MOVF   01,F
008C4:  BZ    08D6
....................     {
....................         fprintf(PORT1, "Flash ID Check OK.\r\n");
008C6:  MOVLW  44
008C8:  MOVWF  FF6
008CA:  MOVLW  01
008CC:  MOVWF  FF7
008CE:  MOVLW  00
008D0:  MOVWF  FF8
008D2:  RCALL  02E0
....................     }
008D4:  BRA    08E4
....................     else
....................     {
....................         fprintf(PORT1, "Flash ID Check FAILED. (Check Connections)\r\n");
008D6:  MOVLW  5A
008D8:  MOVWF  FF6
008DA:  MOVLW  01
008DC:  MOVWF  FF7
008DE:  MOVLW  00
008E0:  MOVWF  FF8
008E2:  RCALL  02E0
....................     }
....................     fprintf(PORT1, "Read ID Flash128M done.\r\n");
008E4:  MOVLW  88
008E6:  MOVWF  FF6
008E8:  MOVLW  01
008EA:  MOVWF  FF7
008EC:  MOVLW  00
008EE:  MOVWF  FF8
008F0:  RCALL  02E0
.................... 
....................     // ŃāĪŃéżŃā│Ńā½Ńā╝ŃāŚ’╝ÜõĮĢÕ║”ŃééÕģźÕŖøŌåÆµøĖŃüŹĶŠ╝Ńü┐ŌåÆĶ¬ŁŃü┐Õć║ŃüŚŃéÆĶĪīŃüłŃéŗŃéłŃüåŃü½ŃüÖŃéŗ
....................     while(TRUE)
....................     {
....................         fprintf(PORT1, "\r\n================================\r\n");
008F2:  MOVLW  A2
008F4:  MOVWF  FF6
008F6:  MOVLW  01
008F8:  MOVWF  FF7
008FA:  MOVLW  00
008FC:  MOVWF  FF8
008FE:  RCALL  02E0
....................         fprintf(PORT1, "Please enter text (max 20 chars) and press ENTER:\r\n> ");
00900:  MOVLW  C8
00902:  MOVWF  FF6
00904:  MOVLW  01
00906:  MOVWF  FF7
00908:  MOVLW  00
0090A:  MOVWF  FF8
0090C:  RCALL  02E0
.................... 
....................         // --- µ¢ćÕŁŚÕłŚÕģźÕŖøÕć”ńÉå (Ńé©Ńé│Ńā╝ŃāÉŃāāŃé»õ╗śŃüŹ) ---
....................         data_len = 0;
0090E:  CLRF   30
....................         while(TRUE)
....................         {
....................             c = fgetc(PORT1); // UART1ŃüŗŃéē1µ¢ćÕŁŚÕÅŚõ┐Ī (Ńā¢ŃāŁŃāāŃéŁŃā│Ńé░)
00910:  BTFSS  F9E.5
00912:  BRA    0910
00914:  MOVFF  FAE,32
.................... 
....................             if(c == '\r') // EnterŃéŁŃā╝ŃüīµŖ╝ŃüĢŃéīŃü¤ŃéēńĄéõ║å
00918:  MOVF   32,W
0091A:  SUBLW  0D
0091C:  BNZ   0922
....................             {
....................                 break;
0091E:  BRA    0962
....................             }
00920:  BRA    0960
....................             else if(c == 0x08 || c == 0x7F) // ŃāÉŃāāŃé»Ńé╣ŃāÜŃā╝Ńé╣ŃéŁŃā╝Ńü«Õć”ńÉå
00922:  MOVF   32,W
00924:  SUBLW  08
00926:  BZ    092E
00928:  MOVF   32,W
0092A:  SUBLW  7F
0092C:  BNZ   0942
....................             {
....................                 if(data_len > 0)
0092E:  MOVF   30,F
00930:  BZ    0940
....................                 {
....................                     data_len--;
00932:  DECF   30,F
....................                     fputc(0x08, PORT1); // Ńé½Ńā╝ŃéĮŃā½ŃéÆµł╗ŃüÖ
00934:  MOVLW  08
00936:  RCALL  0498
....................                     fputc(' ', PORT1);  // ń®║ńÖĮŃü¦µ¢ćÕŁŚŃéÆµČłŃüÖ
00938:  MOVLW  20
0093A:  RCALL  0498
....................                     fputc(0x08, PORT1); // ÕåŹÕ║”Ńé½Ńā╝ŃéĮŃā½ŃéÆµł╗ŃüÖ
0093C:  MOVLW  08
0093E:  RCALL  0498
....................                 }
....................             }
00940:  BRA    0960
....................             else if(data_len < 20) // ķĆÜÕĖĖŃü«µ¢ćÕŁŚÕģźÕŖø (ŃāÉŃāāŃāĢŃéĪõĖŖķÖÉŃüŠŃü¦)
00942:  MOVF   30,W
00944:  SUBLW  13
00946:  BNC   0960
....................             {
....................                 write_str[data_len] = c;
00948:  CLRF   03
0094A:  MOVF   30,W
0094C:  ADDLW  06
0094E:  MOVWF  FE9
00950:  MOVLW  00
00952:  ADDWFC 03,W
00954:  MOVWF  FEA
00956:  MOVFF  32,FEF
....................                 data_len++;
0095A:  INCF   30,F
....................                 fputc(c, PORT1); // ÕģźÕŖøŃüŚŃü¤µ¢ćÕŁŚŃéÆńö╗ķØóŃü½ĶĪ©ńż║ (Ńé©Ńé│Ńā╝ŃāÉŃāāŃé»)
0095C:  MOVF   32,W
0095E:  RCALL  0498
....................             }
00960:  BRA    0910
....................         }
.................... 
....................         write_str[data_len] = '\0'; // µ¢ćÕŁŚÕłŚŃü«ńĄéń½»Õć”ńÉå
00962:  CLRF   03
00964:  MOVF   30,W
00966:  ADDLW  06
00968:  MOVWF  FE9
0096A:  MOVLW  00
0096C:  ADDWFC 03,W
0096E:  MOVWF  FEA
00970:  CLRF   FEF
....................         fprintf(PORT1, "\r\n"); // µö╣ĶĪī
00972:  MOVLW  0D
00974:  BTFSS  F9E.4
00976:  BRA    0974
00978:  MOVWF  FAD
0097A:  MOVLW  0A
0097C:  BTFSS  F9E.4
0097E:  BRA    097C
00980:  MOVWF  FAD
.................... 
....................         // õĮĢŃééÕģźÕŖøŃüĢŃéīŃü¬ŃüŗŃüŻŃü¤ÕĀ┤ÕÉłŃü»Ńé╣ŃéŁŃāāŃāŚ
....................         if (data_len == 0)
00982:  MOVF   30,F
00984:  BNZ   0996
....................         {
....................             fprintf(PORT1, "No text entered. Try again.\r\n");
00986:  MOVLW  FE
00988:  MOVWF  FF6
0098A:  MOVLW  01
0098C:  MOVWF  FF7
0098E:  MOVLW  00
00990:  MOVWF  FF8
00992:  RCALL  02E0
....................             continue;
00994:  BRA    08F2
....................         }
.................... 
....................         fprintf(PORT1, "Input received: %s (Length: %u)\r\n", write_str, data_len);
00996:  MOVLW  1C
00998:  MOVWF  FF6
0099A:  MOVLW  02
0099C:  MOVWF  FF7
0099E:  MOVLW  00
009A0:  MOVWF  FF8
009A2:  MOVLW  10
009A4:  MOVWF  33
009A6:  RCALL  04A0
009A8:  CLRF   FEA
009AA:  MOVLW  06
009AC:  MOVWF  FE9
009AE:  RCALL  04C8
009B0:  MOVLW  2E
009B2:  MOVWF  FF6
009B4:  MOVLW  02
009B6:  MOVWF  FF7
009B8:  MOVLW  00
009BA:  MOVWF  FF8
009BC:  MOVLW  0A
009BE:  MOVWF  33
009C0:  RCALL  04A0
009C2:  MOVFF  30,33
009C6:  MOVLW  1B
009C8:  MOVWF  34
009CA:  BRA    0516
009CC:  MOVLW  3A
009CE:  MOVWF  FF6
009D0:  MOVLW  02
009D2:  MOVWF  FF7
009D4:  MOVLW  00
009D6:  MOVWF  FF8
009D8:  MOVLW  03
009DA:  MOVWF  33
009DC:  RCALL  04A0
.................... 
....................         // --- Ńé╗Ńé»Ńé┐µČłÕÄ╗ ---
....................         // µøĖŃüŹĶŠ╝Ńü┐ÕēŹŃü½Õ»ŠĶ▒ĪŃé╗Ńé»Ńé┐(ŃüōŃüōŃü¦Ńü»0x0000ŃéÆÕÉ½ŃéĆŃé╗Ńé»Ńé┐)ŃéÆµČłÕÄ╗ŃüÖŃéŗÕ┐ģĶ”üŃüīŃüéŃéŖŃüŠŃüÖ
....................         fprintf(PORT1, "Sector Erase Flash128M (Addr: 0x0000)...\r\n");
009DE:  MOVLW  3E
009E0:  MOVWF  FF6
009E2:  MOVLW  02
009E4:  MOVWF  FF7
009E6:  MOVLW  00
009E8:  MOVWF  FF8
009EA:  RCALL  02E0
....................         sector_erase_flash128m(0x0000);
009EC:  CLRF   36
009EE:  CLRF   35
009F0:  CLRF   34
009F2:  CLRF   33
009F4:  BRA    05AC
....................         fprintf(PORT1, "Sector Erase done.\r\n");
009F6:  MOVLW  6A
009F8:  MOVWF  FF6
009FA:  MOVLW  02
009FC:  MOVWF  FF7
009FE:  MOVLW  00
00A00:  MOVWF  FF8
00A02:  RCALL  02E0
.................... 
....................         // --- µøĖŃüŹĶŠ╝Ńü┐ ---
....................         fprintf(PORT1, "Writing Data...\r\n");
00A04:  MOVLW  80
00A06:  MOVWF  FF6
00A08:  MOVLW  02
00A0A:  MOVWF  FF7
00A0C:  MOVLW  00
00A0E:  MOVWF  FF8
00A10:  RCALL  02E0
....................         // (ŃéóŃāēŃā¼Ńé╣, ķĢĘŃüĢ, ŃāćŃā╝Ńé┐ŃāØŃéżŃā│Ńé┐)
....................         write_data_bytes_flash128m(0x0000, data_len, (int8*)write_str);
00A12:  CLRF   36
00A14:  CLRF   35
00A16:  CLRF   34
00A18:  CLRF   33
00A1A:  MOVFF  30,37
00A1E:  CLRF   39
00A20:  MOVLW  06
00A22:  MOVWF  38
00A24:  BRA    0656
....................         fprintf(PORT1, "Write done.\r\n");
00A26:  MOVLW  92
00A28:  MOVWF  FF6
00A2A:  MOVLW  02
00A2C:  MOVWF  FF7
00A2E:  MOVLW  00
00A30:  MOVWF  FF8
00A32:  RCALL  02E0
.................... 
....................         // --- Ķ¬ŁŃü┐Õć║ŃüŚµż£Ķ©╝ ---
....................         fprintf(PORT1, "Reading Data...\r\n");
00A34:  MOVLW  A0
00A36:  MOVWF  FF6
00A38:  MOVLW  02
00A3A:  MOVWF  FF7
00A3C:  MOVLW  00
00A3E:  MOVWF  FF8
00A40:  RCALL  02E0
.................... 
....................         // Ķ¬ŁŃü┐Õć║ŃüŚŃāÉŃāāŃāĢŃéĪŃéÆŃé»Ńā¬Ńéó
....................         for(i = 0; i < sizeof(read_buf); i++)
00A42:  CLRF   31
00A44:  MOVF   31,W
00A46:  SUBLW  14
00A48:  BNC   0A5E
....................         {
....................             read_buf[i] = 0;
00A4A:  CLRF   03
00A4C:  MOVF   31,W
00A4E:  ADDLW  1B
00A50:  MOVWF  FE9
00A52:  MOVLW  00
00A54:  ADDWFC 03,W
00A56:  MOVWF  FEA
00A58:  CLRF   FEF
00A5A:  INCF   31,F
00A5C:  BRA    0A44
....................         }
.................... 
....................         // ŃāćŃā╝Ńé┐Ńü«Ķ¬ŁŃü┐Õć║ŃüŚ
....................         read_data_bytes_flash128m(0x0000, data_len, read_buf);
00A5E:  CLRF   37
00A60:  CLRF   36
00A62:  CLRF   35
00A64:  CLRF   34
00A66:  MOVFF  30,38
00A6A:  CLRF   3A
00A6C:  MOVLW  1B
00A6E:  MOVWF  39
00A70:  BRA    071C
.................... 
....................         // ńĄÉµ×£Ńü«ĶĪ©ńż║
....................         fprintf(PORT1, "Read Result(String): %s\r\n", read_buf);
00A72:  MOVLW  B2
00A74:  MOVWF  FF6
00A76:  MOVLW  02
00A78:  MOVWF  FF7
00A7A:  MOVLW  00
00A7C:  MOVWF  FF8
00A7E:  MOVLW  15
00A80:  MOVWF  33
00A82:  RCALL  04A0
00A84:  CLRF   FEA
00A86:  MOVLW  1B
00A88:  MOVWF  FE9
00A8A:  RCALL  04C8
00A8C:  MOVLW  0D
00A8E:  BTFSS  F9E.4
00A90:  BRA    0A8E
00A92:  MOVWF  FAD
00A94:  MOVLW  0A
00A96:  BTFSS  F9E.4
00A98:  BRA    0A96
00A9A:  MOVWF  FAD
.................... 
....................         // Ķ®│ń┤░Ńü¬HEXĶĪ©ńż║
....................         fprintf(PORT1, "Read Result(Hex): ");
00A9C:  MOVLW  CC
00A9E:  MOVWF  FF6
00AA0:  MOVLW  02
00AA2:  MOVWF  FF7
00AA4:  MOVLW  00
00AA6:  MOVWF  FF8
00AA8:  RCALL  02E0
....................         for(i = 0; i < data_len; i++)
00AAA:  CLRF   31
00AAC:  MOVF   30,W
00AAE:  SUBWF  31,W
00AB0:  BC    0AD6
....................         {
....................             fprintf(PORT1, "%02X ", read_buf[i]);
00AB2:  CLRF   03
00AB4:  MOVF   31,W
00AB6:  ADDLW  1B
00AB8:  MOVWF  FE9
00ABA:  MOVLW  00
00ABC:  ADDWFC 03,W
00ABE:  MOVWF  FEA
00AC0:  MOVFF  FEF,4A
00AC4:  MOVLW  37
00AC6:  MOVWF  4B
00AC8:  RCALL  038E
00ACA:  MOVLW  20
00ACC:  BTFSS  F9E.4
00ACE:  BRA    0ACC
00AD0:  MOVWF  FAD
00AD2:  INCF   31,F
00AD4:  BRA    0AAC
....................         }
....................         fprintf(PORT1, "\r\n");
00AD6:  MOVLW  0D
00AD8:  BTFSS  F9E.4
00ADA:  BRA    0AD8
00ADC:  MOVWF  FAD
00ADE:  MOVLW  0A
00AE0:  BTFSS  F9E.4
00AE2:  BRA    0AE0
00AE4:  MOVWF  FAD
00AE6:  BRA    08F2
.................... 
....................         // õĖĆĶć┤ńó║Ķ¬Ź
....................         // ń░ĪµśōńÜäŃü¬ŃāüŃé¦ŃāāŃé»’╝łÕģłķĀŁµ¢ćÕŁŚŃü©ķĢĘŃüĢŃüīÕÉłŃüŻŃü”ŃüäŃéŗŃüŗŃü¬Ńü®’╝ē
....................         // Õ┐ģĶ”üŃü¦ŃüéŃéīŃü░ strcmp Ńü¬Ńü®Ńü¦ÕÄ│Õ»åŃü½µ»öĶ╝āÕÅ»ĶāĮ
....................     }
.................... }
.................... 
00AE8:  SLEEP 
.................... 
.................... /*
.................... // ADCµ©Īµō¼Ńé│Ńā╝Ńāē ()
.................... // --- ADCÕĆżÕÅ¢ÕŠŚńö©ķ¢óµĢ░’╝łŃāŚŃāŁŃāłŃé┐ŃéżŃāŚ’╝ē ---
.................... unsigned int16 get_adc_sample(void);
.................... #include <stdlib.h>
.................... 
.................... void main()
.................... {
....................     // 12bit ADCŃü«ÕĆż’╝ł0’Į×4095’╝ē
....................     unsigned int16 adc_value;
....................     unsigned int16 read_value;
.................... 
....................     // FlashµøĖŃüŹĶŠ╝Ńü┐ńö©ŃāÉŃāāŃāĢŃéĪ’╝ł2ŃāÉŃéżŃāł’╝ē
....................     int8 data_buf[2];
.................... 
....................     // µøĖŃüŹĶŠ╝Ńü┐ÕģłŃéóŃāēŃā¼Ńé╣’╝łńĘ┤ń┐Æńö©Ńü©ŃüŚŃü”Õø║Õ«Ü’╝ē
....................     int32 flash_addr = 0x0000;
.................... 
....................     fprintf(PORT1, "== ADC Data Logging Test Program ==\r\n");
.................... 
....................     // --- ÕłØµ£¤Õī¢Õć”ńÉå ---
....................     fprintf(PORT1, "Initializing Flash...\r\n");
....................     flash_setting();
....................     status_register_flash128m();
.................... 
....................     if(read_id_flash128m())
....................     {
....................         fprintf(PORT1, "Flash Ready.\r\n");
....................     }
....................     else
....................     {
....................         fprintf(PORT1, "Flash Error! Check connections.\r\n");
....................     }
.................... 
....................     // --- ADCŃü«ÕłØµ£¤Õī¢’╝łÕ┐ģĶ”üŃü¬ÕĀ┤ÕÉł’╝ē ---
....................     // setup_adc(ADC_CLOCK_INTERNAL);
....................     // setup_adc_ports(sAN0); // õŠŗ
.................... 
....................     fprintf(PORT1, "\r\n=== Ready ===\r\n");
....................     fprintf(PORT1, "Press [ENTER] to capture ADC value and save to Flash.\r\n");
.................... 
....................     while(TRUE)
....................     {
....................         // ŃéŁŃā╝ÕģźÕŖøÕŠģŃüĪ’╝łEnterŃéŁŃā╝ŃüīµŖ╝ŃüĢŃéīŃéŗŃüŠŃü¦Ńā¢ŃāŁŃāāŃé»’╝ē
....................         char c = fgetc(PORT1);
....................         if(c != '\r')
....................         {
....................             continue;
....................         }
.................... 
....................         fprintf(PORT1, "\r\n[Action] Sampling Start...\r\n");
.................... 
....................         // 1. ADCÕĆżŃü«ÕÅ¢ÕŠŚ
....................         // µ£¼ńĢ¬Ńü¦Ńü»ŃüōŃü«ķ¢óµĢ░Ńü«õĖŁĶ║½Ńü¦Õ«¤ķÜøŃü«ADCŃéÆĶ¬ŁŃü┐Ńü½ĶĪīŃüŹŃüŠŃüÖ
....................         adc_value = get_adc_sample();
.................... 
....................         fprintf(PORT1, "ADC Value: %lu (0x%04lX)\r\n", adc_value, adc_value);
.................... 
....................         // 2. ŃāćŃā╝Ńé┐Ńü«ÕłåÕē▓ (ŃāÉŃéżŃāŖŃā¬Õī¢)
....................         // õĖŖõĮŹ8bit
....................         data_buf[0] = (int8)((adc_value >> 8) & 0xFF);
....................         // õĖŗõĮŹ8bit
....................         data_buf[1] = (int8)(adc_value & 0xFF);
.................... 
....................         // 3. FlashŃüĖŃü«µøĖŃüŹĶŠ╝Ńü┐
....................         // µ│©µäÅ: õĖŖµøĖŃüŹŃü¦ŃüŹŃü¬ŃüäŃü¤ŃéüŃĆüńĘ┤ń┐Æńö©Ńü½µ»ÄÕø×Ńé╗Ńé»Ńé┐ŃéÆµČłÕÄ╗ŃüŚŃü”ŃüŗŃéēµøĖŃüŹĶŠ╝Ńü┐ŃüŠŃüÖ
....................         // Õ«¤ķüŗńö©Ńü¦ŃāŁŃé░ŃéÆÕÅ¢ŃéŗÕĀ┤ÕÉłŃü»ŃĆüŃéóŃāēŃā¼Ńé╣ŃéÆŃüÜŃéēŃüŚŃü¬ŃüīŃéēĶ┐ĮĶ©śŃüŚŃü”ŃüäŃüŹŃüŠŃüÖ
....................         sector_erase_flash128m(flash_addr);
.................... 
....................         // µøĖŃüŹĶŠ╝Ńü┐Õ«¤ĶĪī
....................         write_data_bytes_flash128m(flash_addr, 2, data_buf);
....................         fprintf(PORT1, "Saved to Flash Addr 0x%04lX.\r\n", flash_addr);
.................... 
....................         // 4. µż£Ķ©╝’╝łĶ¬ŁŃü┐Õć║ŃüŚŃü”ńó║Ķ¬Ź’╝ē
....................         // ŃāÉŃāāŃāĢŃéĪŃéÆŃé»Ńā¬Ńéó
....................         data_buf[0] = 0;
....................         data_buf[1] = 0;
.................... 
....................         read_data_bytes_flash128m(flash_addr, 2, data_buf);
.................... 
....................         // ÕŠ®Õģā
....................         read_value = ((unsigned int16)data_buf[0] << 8) | ((unsigned int16)data_buf[1] & 0xFF);
.................... 
....................         // ńĄÉµ×£ĶĪ©ńż║
....................         fprintf(PORT1, "Read Back: %lu (0x%04lX) -> ", read_value, read_value);
.................... 
....................         if(adc_value == read_value)
....................         {
....................             fprintf(PORT1, "OK [Match]\r\n");
....................         }
....................         else
....................         {
....................             fprintf(PORT1, "NG [Mismatch]\r\n");
....................         }
.................... 
....................         fprintf(PORT1, "> Press [ENTER] to next sample...\r\n");
....................     }
.................... }
.................... 
.................... // --- ADCÕĆżÕÅ¢ÕŠŚķ¢óµĢ░ ---
.................... // ńÅŠÕ£©Ńü»ŃāåŃé╣Ńāłńö©Ńü½ŃāĆŃā¤Ńā╝ÕĆżŃéÆĶ┐öŃüŚŃüŠŃüÖŃĆé
.................... // µ£¼ńĢ¬Ńü¦Ńü»ŃüōŃüōŃéÆµøĖŃüŹµÅøŃüłŃü”Õ«¤ķÜøŃü«ADCÕĆżŃéÆĶ┐öŃüŚŃü”ŃüÅŃüĀŃüĢŃüäŃĆé
.................... unsigned int16 get_adc_sample(void)
.................... {
....................     static unsigned int16 dummy_value = 0;
....................     unsigned int16 val;
.................... 
....................     // === µ£¼ńĢ¬ńö©Ńé│Ńā╝ŃāēõŠŗ (ÕåģĶöĄADCŃü«ÕĀ┤ÕÉł) ===
....................     // set_adc_channel(0);
....................     // delay_us(10);
....................     // val = read_adc();
....................     // return val;
.................... 
....................     // === µ£¼ńĢ¬ńö©Ńé│Ńā╝ŃāēõŠŗ (Õż¢ķā©ADC LTC2452 / SPIŃü«ÕĀ┤ÕÉł) ===
....................     // output_low(ADC_CS_PIN);
....................     // val = spi_xfer(ADC_SPI_PORT, 0x00) << 8; // õĖŖõĮŹŃāÉŃéżŃāłÕÅŚõ┐Ī
....................     // val |= spi_xfer(ADC_SPI_PORT, 0x00);     // õĖŗõĮŹŃāÉŃéżŃāłÕÅŚõ┐Ī
....................     // output_high(ADC_CS_PIN);
....................     // return val & 0x0FFF; // 12bitŃā×Ńé╣Ńé»Ńü¬Ńü®
.................... 
....................     // === ŃāåŃé╣Ńāłńö©ŃāĆŃā¤Ńā╝Ńé│Ńā╝Ńāē ===
....................     // --- ADCÕĆżÕÅ¢ÕŠŚķ¢óµĢ░ ---
....................     // 12bitń»äÕø▓(0-4095)Ńü«ń¢æõ╝╝õ╣▒µĢ░ŃéÆĶ┐öŃüŚŃüŠŃüÖ
....................     // rand() Ńü» 0’Į×32767 Ńü«ń»äÕø▓Ńü«µĢ┤µĢ░ŃéÆĶ┐öŃüŚŃüŠŃüÖ (CCS CŃü«ÕĀ┤ÕÉł)
....................     // ŃüōŃéīŃéÆ 0x0FFF (4095) Ńü¦Ńā×Ńé╣Ńé»ŃüÖŃéŗŃüōŃü©Ńü¦ŃĆüõĖŗõĮŹ12ŃāōŃāāŃāłŃüĀŃüæŃéÆÕÅ¢ŃéŖÕć║ŃüŚŃüŠŃüÖŃĆé
....................     // ŃüōŃéīŃü½ŃéłŃéŖ 0 ’Į× 4095 Ńü«ń»äÕø▓Ńü«Ńā®Ńā│ŃāĆŃāĀŃü¬ÕĆżŃüīÕŠŚŃéēŃéīŃüŠŃüÖŃĆé
.................... 
....................     return (unsigned int16)(rand() & 0x0FFF);
.................... }
.................... */

Configuration Fuses:
   Word  1: F7A0   STVREN NOXINST NODEBUG BROWNOUT_SW BORV18 NOPROTECT
   Word  2: FF82   PR SOSC_DIG NOCLOCKOUT IESO NOPLL
   Word  3: F032   HS
   Word  4: F7FF   WPFP WPDIS WPEND NOWPCFG
   Word  5: FF03   T5G_IS_T5G CINA_DEFAULT IOL1WAY LS48MHZ MSSP2MSK7 MSSPMSK7
   Word  6: FCFF   WDTWIN_25% WDTCLK_FRC WDT32768 NOWDT WINDIS WPRES128
   Word  7: F01D   NOVREGSLEEP VBATBOR DSBOR DS_SW
   Word  8: F3F8   DSWDT_25DAYS NODSWDT DSWDTOSC_INT
