CCS PCH C Compiler, Version 5.104, 57077               19-2-26 16:02

               Filename:   C:\Users\rice_\Chiba Institute of Technology\6Źåŗ@ - āhāLāģāüāōāg\TMP_MIS\02_Software\PIC18_Practice\07_ADC1\ADC1.lst

               ROM used:   5340 bytes (4%)
                           Largest free fragment is 65520
               RAM used:   82 (2%) at main() level
                           108 (3%) worst case
               Stack used: 1 locations (0 in main + 1 for interrupts)
               Stack size: 31

*
00000:  NOP   
00002:  GOTO   0E98
*
00008:  MOVWF  04
0000A:  MOVFF  FD8,05
0000E:  MOVFF  FE0,06
00012:  MOVLB  0
00014:  MOVFF  FE9,0C
00018:  MOVFF  FEA,07
0001C:  MOVFF  FE1,08
00020:  MOVFF  FE2,09
00024:  MOVFF  FD9,0A
00028:  MOVFF  FDA,0B
0002C:  MOVFF  FF3,12
00030:  MOVFF  FF4,13
00034:  MOVFF  FFA,14
00038:  MOVFF  FF5,15
0003C:  MOVFF  FF6,16
00040:  MOVFF  FF7,17
00044:  MOVFF  FF8,18
00048:  MOVFF  FFB,19
0004C:  MOVFF  00,0E
00050:  MOVFF  01,0F
00054:  MOVFF  02,10
00058:  MOVFF  03,11
0005C:  BTFSS  FF2.5
0005E:  GOTO   0068
00062:  BTFSC  FF2.2
00064:  GOTO   014A
00068:  MOVFF  0E,00
0006C:  MOVFF  0F,01
00070:  MOVFF  10,02
00074:  MOVFF  11,03
00078:  MOVFF  0C,FE9
0007C:  MOVFF  07,FEA
00080:  BSF    07.7
00082:  MOVFF  08,FE1
00086:  MOVFF  09,FE2
0008A:  MOVFF  0A,FD9
0008E:  MOVFF  0B,FDA
00092:  MOVFF  12,FF3
00096:  MOVFF  13,FF4
0009A:  MOVFF  14,FFA
0009E:  MOVFF  15,FF5
000A2:  MOVFF  16,FF6
000A6:  MOVFF  17,FF7
000AA:  MOVFF  18,FF8
000AE:  MOVFF  19,FFB
000B2:  MOVF   04,W
000B4:  MOVFF  06,FE0
000B8:  MOVFF  05,FD8
000BC:  RETFIE 0
.................... #include "ADC1.h"
.................... #include <18F67J94.h>
.................... //////////// Standard Header file for the PIC18F67J94 device ////////////////
.................... ///////////////////////////////////////////////////////////////////////////
.................... ////        (C) Copyright 1996, 2020 Custom Computer Services          ////
.................... //// This source code may only be used by licensed users of the CCS C  ////
.................... //// compiler.  This source code may only be distributed to other      ////
.................... //// licensed users of the CCS C compiler.  No other use, reproduction ////
.................... //// or distribution is permitted without written permission.          ////
.................... //// Derivative programs created using this software in object code    ////
.................... //// form are not restricted in any way.                               ////
.................... ///////////////////////////////////////////////////////////////////////////
.................... #device PIC18F67J94
000BE:  DATA 31,47
000C0:  DATA 62,69
000C2:  DATA 74,20
000C4:  DATA 66,6C
000C6:  DATA 61,73
000C8:  DATA 68,20
000CA:  DATA 62,75
000CC:  DATA 73,79
000CE:  DATA 0A,0D
000D0:  DATA 00,00
000D2:  DATA 52,65
000D4:  DATA 61,64
000D6:  DATA 20,49
000D8:  DATA 44,3A
000DA:  DATA 00,00
000DC:  DATA 66,6C
000DE:  DATA 61,73
000E0:  DATA 68,20
000E2:  DATA 63,6F
000E4:  DATA 6E,6E
000E6:  DATA 65,63
000E8:  DATA 74,20
000EA:  DATA 4F,4B
000EC:  DATA 0D,0A
000EE:  DATA 00,00
000F0:  DATA 66,6C
000F2:  DATA 61,73
000F4:  DATA 68,20
000F6:  DATA 6E,6F
000F8:  DATA 74,20
000FA:  DATA 63,6F
000FC:  DATA 6E,6E
000FE:  DATA 65,63
00100:  DATA 74,0D
00102:  DATA 0A,00
00104:  DATA 66,6C
00106:  DATA 61,73
00108:  DATA 68,20
0010A:  DATA 74,69
0010C:  DATA 6D,65
0010E:  DATA 6F,75
00110:  DATA 74,00
00112:  DATA 66,6C
00114:  DATA 61,73
00116:  DATA 68,20
00118:  DATA 74,69
0011A:  DATA 6D,65
0011C:  DATA 6F,75
0011E:  DATA 74,00
00120:  DATA 66,6C
00122:  DATA 61,73
00124:  DATA 68,20
00126:  DATA 74,69
00128:  DATA 6D,65
0012A:  DATA 6F,75
0012C:  DATA 74,00
0012E:  DATA 66,6C
00130:  DATA 61,73
00132:  DATA 68,20
00134:  DATA 74,69
00136:  DATA 6D,65
00138:  DATA 6F,75
0013A:  DATA 74,00
0013C:  DATA 66,6C
0013E:  DATA 61,73
00140:  DATA 68,20
00142:  DATA 74,69
00144:  DATA 6D,65
00146:  DATA 6F,75
00148:  DATA 74,00
*
0016C:  DATA 0D,0A
0016E:  DATA 3D,3D
00170:  DATA 3D,20
00172:  DATA 53,79
00174:  DATA 73,74
00176:  DATA 65,6D
00178:  DATA 20,42
0017A:  DATA 6F,6F
0017C:  DATA 74,69
0017E:  DATA 6E,67
00180:  DATA 20,3D
00182:  DATA 3D,3D
00184:  DATA 0D,0A
00186:  DATA 00,00
00188:  DATA 49,6E
0018A:  DATA 69,74
0018C:  DATA 69,61
0018E:  DATA 6C,69
00190:  DATA 7A,69
00192:  DATA 6E,67
00194:  DATA 20,54
00196:  DATA 69,6D
00198:  DATA 65,72
0019A:  DATA 20,28
0019C:  DATA 31,6D
0019E:  DATA 73,29
001A0:  DATA 2E,2E
001A2:  DATA 2E,0D
001A4:  DATA 0A,00
001A6:  DATA 49,6E
001A8:  DATA 69,74
001AA:  DATA 69,61
001AC:  DATA 6C,69
001AE:  DATA 7A,69
001B0:  DATA 6E,67
001B2:  DATA 20,46
001B4:  DATA 6C,61
001B6:  DATA 73,68
001B8:  DATA 2E,2E
001BA:  DATA 2E,0D
001BC:  DATA 0A,00
001BE:  DATA 46,6C
001C0:  DATA 61,73
001C2:  DATA 68,20
001C4:  DATA 43,6F
001C6:  DATA 6E,6E
001C8:  DATA 65,63
001CA:  DATA 74,69
001CC:  DATA 6F,6E
001CE:  DATA 20,4F
001D0:  DATA 4B,2E
001D2:  DATA 0D,0A
001D4:  DATA 00,00
001D6:  DATA 46,6C
001D8:  DATA 61,73
001DA:  DATA 68,20
001DC:  DATA 43,6F
001DE:  DATA 6E,6E
001E0:  DATA 65,63
001E2:  DATA 74,69
001E4:  DATA 6F,6E
001E6:  DATA 20,46
001E8:  DATA 41,49
001EA:  DATA 4C,45
001EC:  DATA 44,2E
001EE:  DATA 20,43
001F0:  DATA 68,65
001F2:  DATA 63,6B
001F4:  DATA 20,77
001F6:  DATA 69,72
001F8:  DATA 69,6E
001FA:  DATA 67,2E
001FC:  DATA 0D,0A
001FE:  DATA 00,00
00200:  DATA 0D,0A
00202:  DATA 3D,3D
00204:  DATA 3D,20
00206:  DATA 4F,70
00208:  DATA 65,72
0020A:  DATA 61,74
0020C:  DATA 69,6F
0020E:  DATA 6E,20
00210:  DATA 4D,65
00212:  DATA 6E,75
00214:  DATA 20,3D
00216:  DATA 3D,3D
00218:  DATA 0D,0A
0021A:  DATA 00,00
0021C:  DATA 20,5B
0021E:  DATA 41,5D
00220:  DATA 20,53
00222:  DATA 74,61
00224:  DATA 72,74
00226:  DATA 20,4C
00228:  DATA 6F,67
0022A:  DATA 67,69
0022C:  DATA 6E,67
0022E:  DATA 20,28
00230:  DATA 45,72
00232:  DATA 61,73
00234:  DATA 65,20
00236:  DATA 26,20
00238:  DATA 52,65
0023A:  DATA 63,6F
0023C:  DATA 72,64
0023E:  DATA 29,0D
00240:  DATA 0A,00
00242:  DATA 20,5B
00244:  DATA 53,5D
00246:  DATA 20,53
00248:  DATA 74,6F
0024A:  DATA 70,20
0024C:  DATA 4C,6F
0024E:  DATA 67,67
00250:  DATA 69,6E
00252:  DATA 67,0D
00254:  DATA 0A,00
00256:  DATA 20,5B
00258:  DATA 44,5D
0025A:  DATA 20,44
0025C:  DATA 69,73
0025E:  DATA 70,6C
00260:  DATA 61,79
00262:  DATA 20,52
00264:  DATA 65,63
00266:  DATA 6F,72
00268:  DATA 64,65
0026A:  DATA 64,20
0026C:  DATA 44,61
0026E:  DATA 74,61
00270:  DATA 20,28
00272:  DATA 43,53
00274:  DATA 56,29
00276:  DATA 0D,0A
00278:  DATA 00,00
0027A:  DATA 3D,3D
0027C:  DATA 3D,3D
0027E:  DATA 3D,3D
00280:  DATA 3D,3D
00282:  DATA 3D,3D
00284:  DATA 3D,3D
00286:  DATA 3D,3D
00288:  DATA 3D,3D
0028A:  DATA 3D,3D
0028C:  DATA 3D,3D
0028E:  DATA 3D,3D
00290:  DATA 0D,0A
00292:  DATA 0D,0A
00294:  DATA 00,00
00296:  DATA 0D,0A
00298:  DATA 5B,43
0029A:  DATA 4D,44
0029C:  DATA 5D,20
0029E:  DATA 53,74
002A0:  DATA 61,72
002A2:  DATA 74,20
002A4:  DATA 4C,6F
002A6:  DATA 67,67
002A8:  DATA 69,6E
002AA:  DATA 67,2E
002AC:  DATA 2E,2E
002AE:  DATA 0D,0A
002B0:  DATA 00,00
002B2:  DATA 45,72
002B4:  DATA 61,73
002B6:  DATA 69,6E
002B8:  DATA 67,20
002BA:  DATA 53,65
002BC:  DATA 63,74
002BE:  DATA 6F,72
002C0:  DATA 20,30
002C2:  DATA 20,28
002C4:  DATA 50,6C
002C6:  DATA 65,61
002C8:  DATA 73,65
002CA:  DATA 20,77
002CC:  DATA 61,69
002CE:  DATA 74,29
002D0:  DATA 2E,2E
002D2:  DATA 2E,0D
002D4:  DATA 0A,00
002D6:  DATA 52,65
002D8:  DATA 63,6F
002DA:  DATA 72,64
002DC:  DATA 69,6E
002DE:  DATA 67,20
002E0:  DATA 53,74
002E2:  DATA 61,72
002E4:  DATA 74,65
002E6:  DATA 64,21
002E8:  DATA 0D,0A
002EA:  DATA 00,00
002EC:  DATA 0D,0A
002EE:  DATA 5B,43
002F0:  DATA 4D,44
002F2:  DATA 5D,20
002F4:  DATA 4C,6F
002F6:  DATA 67,67
002F8:  DATA 69,6E
002FA:  DATA 67,20
002FC:  DATA 53,74
002FE:  DATA 6F,70
00300:  DATA 70,65
00302:  DATA 64,2E
00304:  DATA 0D,0A
00306:  DATA 00,00
00308:  DATA 54,6F
0030A:  DATA 74,61
0030C:  DATA 6C,20
0030E:  DATA 53,61
00310:  DATA 6D,70
00312:  DATA 6C,65
00314:  DATA 73,3A
00316:  DATA 20,25
00318:  DATA 6C,75
0031A:  DATA 0D,0A
0031C:  DATA 00,00
0031E:  DATA 0D,0A
00320:  DATA 5B,49
00322:  DATA 4E,46
00324:  DATA 4F,5D
00326:  DATA 20,4E
00328:  DATA 6F,74
0032A:  DATA 20,72
0032C:  DATA 65,63
0032E:  DATA 6F,72
00330:  DATA 64,69
00332:  DATA 6E,67
00334:  DATA 2E,0D
00336:  DATA 0A,00
00338:  DATA 0D,0A
0033A:  DATA 5B,57
0033C:  DATA 41,52
0033E:  DATA 4E,5D
00340:  DATA 20,50
00342:  DATA 6C,65
00344:  DATA 61,73
00346:  DATA 65,20
00348:  DATA 53,74
0034A:  DATA 6F,70
0034C:  DATA 20,28
0034E:  DATA 53,29
00350:  DATA 20,66
00352:  DATA 69,72
00354:  DATA 73,74
00356:  DATA 2E,0D
00358:  DATA 0A,00
0035A:  DATA 0D,0A
0035C:  DATA 5B,49
0035E:  DATA 4E,46
00360:  DATA 4F,5D
00362:  DATA 20,4E
00364:  DATA 6F,20
00366:  DATA 64,61
00368:  DATA 74,61
0036A:  DATA 20,72
0036C:  DATA 65,63
0036E:  DATA 6F,72
00370:  DATA 64,65
00372:  DATA 64,2E
00374:  DATA 0D,0A
00376:  DATA 00,00
00378:  DATA 0D,0A
0037A:  DATA 5B,43
0037C:  DATA 4D,44
0037E:  DATA 5D,20
00380:  DATA 52,65
00382:  DATA 61,64
00384:  DATA 69,6E
00386:  DATA 67,20
00388:  DATA 46,6C
0038A:  DATA 61,73
0038C:  DATA 68,20
0038E:  DATA 44,61
00390:  DATA 74,61
00392:  DATA 2E,2E
00394:  DATA 2E,0D
00396:  DATA 0A,00
00398:  DATA 54,49
0039A:  DATA 4D,45
0039C:  DATA 28,6D
0039E:  DATA 73,29
003A0:  DATA 2C,20
003A2:  DATA 43,4F
003A4:  DATA 55,4E
003A6:  DATA 54,2C
003A8:  DATA 20,44
003AA:  DATA 41,54
003AC:  DATA 41,5F
003AE:  DATA 48,45
003B0:  DATA 58,2C
003B2:  DATA 20,44
003B4:  DATA 41,54
003B6:  DATA 41,5F
003B8:  DATA 44,45
003BA:  DATA 43,2C
003BC:  DATA 20,56
003BE:  DATA 4F,4C
003C0:  DATA 54,28
003C2:  DATA 56,29
003C4:  DATA 0D,0A
003C6:  DATA 00,00
003C8:  DATA 45,6E
003CA:  DATA 64,20
003CC:  DATA 6F,66
003CE:  DATA 20,44
003D0:  DATA 61,74
003D2:  DATA 61,2E
003D4:  DATA 0D,0A
003D6:  DATA 00,00
003D8:  DATA 54,69
003DA:  DATA 6D,65
003DC:  DATA 3A,25
003DE:  DATA 6C,75
003E0:  DATA 20,6D
003E2:  DATA 73,20
003E4:  DATA 7C,20
003E6:  DATA 52,45
003E8:  DATA 43,3A
003EA:  DATA 20,25
003EC:  DATA 6C,75
003EE:  DATA 20,28
003F0:  DATA 41,64
003F2:  DATA 64,72
003F4:  DATA 3A,20
003F6:  DATA 30,78
003F8:  DATA 25,30
003FA:  DATA 34,6C
003FC:  DATA 58,29
003FE:  DATA 0D,0A
00400:  DATA 00,00
00402:  DATA 0D,0A
00404:  DATA 5B,57
00406:  DATA 41,52
00408:  DATA 4E,5D
0040A:  DATA 20,4D
0040C:  DATA 65,6D
0040E:  DATA 6F,72
00410:  DATA 79,20
00412:  DATA 53,65
00414:  DATA 63,74
00416:  DATA 6F,72
00418:  DATA 20,46
0041A:  DATA 75,6C
0041C:  DATA 6C,2E
0041E:  DATA 20,41
00420:  DATA 75,74
00422:  DATA 6F,20
00424:  DATA 53,74
00426:  DATA 6F,70
00428:  DATA 70,65
0042A:  DATA 64,2E
0042C:  DATA 0D,0A
0042E:  DATA 00,00
00430:  TBLRD*+
00432:  MOVF   FF5,F
00434:  BZ    0458
00436:  MOVFF  FF6,64
0043A:  MOVFF  FF7,65
0043E:  MOVFF  FF8,66
00442:  MOVF   FF5,W
00444:  BTFSS  F9E.4
00446:  BRA    0444
00448:  MOVWF  FAD
0044A:  MOVFF  64,FF6
0044E:  MOVFF  65,FF7
00452:  MOVFF  66,FF8
00456:  BRA    0430
00458:  RETURN 0
*
0049A:  BTFSC  x66.7
0049C:  BRA    04BE
0049E:  MOVLW  0F
004A0:  MOVWF  00
004A2:  SWAPF  x65,W
004A4:  ANDWF  00,F
004A6:  MOVLW  0A
004A8:  SUBWF  00,W
004AA:  BC    04B2
004AC:  MOVLW  30
004AE:  ADDWF  00,F
004B0:  BRA    04B6
004B2:  MOVF   x66,W
004B4:  ADDWF  00,F
004B6:  MOVF   00,W
004B8:  BTFSS  F9E.4
004BA:  BRA    04B8
004BC:  MOVWF  FAD
004BE:  MOVLW  0F
004C0:  ANDWF  x65,F
004C2:  MOVLW  0A
004C4:  SUBWF  x65,W
004C6:  BC    04CC
004C8:  MOVLW  30
004CA:  BRA    04D0
004CC:  BCF    x66.7
004CE:  MOVF   x66,W
004D0:  ADDWF  x65,F
004D2:  MOVF   x65,W
004D4:  BTFSS  F9E.4
004D6:  BRA    04D4
004D8:  MOVWF  FAD
004DA:  RETURN 0
*
006C4:  TBLRD*+
006C6:  MOVFF  FF6,4F
006CA:  MOVFF  FF7,50
006CE:  MOVFF  FF8,51
006D2:  MOVF   FF5,W
006D4:  BTFSS  F9E.4
006D6:  BRA    06D4
006D8:  MOVWF  FAD
006DA:  MOVFF  4F,FF6
006DE:  MOVFF  50,FF7
006E2:  MOVFF  51,FF8
006E6:  DECFSZ 4E,F
006E8:  BRA    06C4
006EA:  RETURN 0
006EC:  BTFSC  FD8.1
006EE:  BRA    06F6
006F0:  CLRF   FEA
006F2:  MOVLW  63
006F4:  MOVWF  FE9
006F6:  CLRF   00
006F8:  CLRF   01
006FA:  CLRF   02
006FC:  CLRF   03
006FE:  CLRF   x63
00700:  CLRF   x64
00702:  CLRF   x65
00704:  CLRF   x66
00706:  MOVF   x62,W
00708:  IORWF  x61,W
0070A:  IORWF  x60,W
0070C:  IORWF  5F,W
0070E:  BZ    0768
00710:  MOVLW  20
00712:  MOVWF  x67
00714:  BCF    FD8.0
00716:  RLCF   5B,F
00718:  RLCF   5C,F
0071A:  RLCF   5D,F
0071C:  RLCF   5E,F
0071E:  RLCF   x63,F
00720:  RLCF   x64,F
00722:  RLCF   x65,F
00724:  RLCF   x66,F
00726:  MOVF   x62,W
00728:  SUBWF  x66,W
0072A:  BNZ   073C
0072C:  MOVF   x61,W
0072E:  SUBWF  x65,W
00730:  BNZ   073C
00732:  MOVF   x60,W
00734:  SUBWF  x64,W
00736:  BNZ   073C
00738:  MOVF   5F,W
0073A:  SUBWF  x63,W
0073C:  BNC   075C
0073E:  MOVF   5F,W
00740:  SUBWF  x63,F
00742:  MOVF   x60,W
00744:  BTFSS  FD8.0
00746:  INCFSZ x60,W
00748:  SUBWF  x64,F
0074A:  MOVF   x61,W
0074C:  BTFSS  FD8.0
0074E:  INCFSZ x61,W
00750:  SUBWF  x65,F
00752:  MOVF   x62,W
00754:  BTFSS  FD8.0
00756:  INCFSZ x62,W
00758:  SUBWF  x66,F
0075A:  BSF    FD8.0
0075C:  RLCF   00,F
0075E:  RLCF   01,F
00760:  RLCF   02,F
00762:  RLCF   03,F
00764:  DECFSZ x67,F
00766:  BRA    0714
00768:  MOVFF  63,FEF
0076C:  MOVFF  64,FEC
00770:  MOVFF  65,FEC
00774:  MOVFF  66,FEC
00778:  RETURN 0
0077A:  MOVF   FE9,W
0077C:  MOVWF  52
0077E:  MOVLW  3B
00780:  MOVWF  59
00782:  MOVLW  9A
00784:  MOVWF  58
00786:  MOVLW  CA
00788:  MOVWF  57
0078A:  CLRF   56
0078C:  MOVLW  0A
0078E:  MOVWF  54
00790:  BSF    FD8.1
00792:  CLRF   FEA
00794:  MOVLW  4E
00796:  MOVWF  FE9
00798:  MOVFF  51,5E
0079C:  MOVFF  50,5D
007A0:  MOVFF  4F,5C
007A4:  MOVFF  4E,5B
007A8:  MOVFF  59,62
007AC:  MOVFF  58,61
007B0:  MOVFF  57,60
007B4:  MOVFF  56,5F
007B8:  RCALL  06EC
007BA:  MOVF   01,W
007BC:  MOVF   00,F
007BE:  BNZ   07DE
007C0:  MOVF   54,W
007C2:  XORLW  01
007C4:  BZ    07DE
007C6:  MOVF   52,W
007C8:  BZ    07E0
007CA:  ANDLW  0F
007CC:  SUBWF  54,W
007CE:  BZ    07D2
007D0:  BC    07EC
007D2:  BTFSC  52.7
007D4:  BRA    07EC
007D6:  BTFSC  52.6
007D8:  BRA    07E0
007DA:  MOVLW  20
007DC:  BRA    07E2
007DE:  CLRF   52
007E0:  MOVLW  30
007E2:  ADDWF  00,F
007E4:  MOVF   00,W
007E6:  BTFSS  F9E.4
007E8:  BRA    07E6
007EA:  MOVWF  FAD
007EC:  BCF    FD8.1
007EE:  MOVFF  59,5E
007F2:  MOVFF  58,5D
007F6:  MOVFF  57,5C
007FA:  MOVFF  56,5B
007FE:  CLRF   x62
00800:  CLRF   x61
00802:  CLRF   x60
00804:  MOVLW  0A
00806:  MOVWF  5F
00808:  RCALL  06EC
0080A:  MOVFF  03,59
0080E:  MOVFF  02,58
00812:  MOVFF  01,57
00816:  MOVFF  00,56
0081A:  DECFSZ 54,F
0081C:  BRA    0790
0081E:  RETURN 0
*
008B6:  MOVLW  8E
008B8:  MOVWF  00
008BA:  MOVFF  4F,01
008BE:  MOVFF  4E,02
008C2:  CLRF   03
008C4:  MOVF   01,F
008C6:  BNZ   08DA
008C8:  MOVFF  02,01
008CC:  CLRF   02
008CE:  MOVLW  08
008D0:  SUBWF  00,F
008D2:  MOVF   01,F
008D4:  BNZ   08DA
008D6:  CLRF   00
008D8:  BRA    08EA
008DA:  BCF    FD8.0
008DC:  BTFSC  01.7
008DE:  BRA    08E8
008E0:  RLCF   02,F
008E2:  RLCF   01,F
008E4:  DECF   00,F
008E6:  BRA    08DA
008E8:  BCF    01.7
008EA:  GOTO   122A (RETURN)
008EE:  MOVF   5B,W
008F0:  BTFSC  FD8.2
008F2:  BRA    09D6
008F4:  MOVWF  00
008F6:  MOVF   5F,W
008F8:  BTFSC  FD8.2
008FA:  BRA    09D6
008FC:  ADDWF  00,F
008FE:  BNC   0908
00900:  MOVLW  81
00902:  ADDWF  00,F
00904:  BC    09D6
00906:  BRA    0910
00908:  MOVLW  7F
0090A:  SUBWF  00,F
0090C:  BNC   09D6
0090E:  BZ    09D6
00910:  MOVFF  5C,63
00914:  MOVF   x60,W
00916:  XORWF  x63,F
00918:  BSF    5C.7
0091A:  BSF    x60.7
0091C:  MOVF   5E,W
0091E:  MULWF  x62
00920:  MOVFF  FF4,65
00924:  MOVF   5D,W
00926:  MULWF  x61
00928:  MOVFF  FF4,03
0092C:  MOVFF  FF3,64
00930:  MULWF  x62
00932:  MOVF   FF3,W
00934:  ADDWF  x65,F
00936:  MOVF   FF4,W
00938:  ADDWFC x64,F
0093A:  MOVLW  00
0093C:  ADDWFC 03,F
0093E:  MOVF   5E,W
00940:  MULWF  x61
00942:  MOVF   FF3,W
00944:  ADDWF  x65,F
00946:  MOVF   FF4,W
00948:  ADDWFC x64,F
0094A:  MOVLW  00
0094C:  CLRF   02
0094E:  ADDWFC 03,F
00950:  ADDWFC 02,F
00952:  MOVF   5C,W
00954:  MULWF  x62
00956:  MOVF   FF3,W
00958:  ADDWF  x64,F
0095A:  MOVF   FF4,W
0095C:  ADDWFC 03,F
0095E:  MOVLW  00
00960:  ADDWFC 02,F
00962:  MOVF   5C,W
00964:  MULWF  x61
00966:  MOVF   FF3,W
00968:  ADDWF  03,F
0096A:  MOVF   FF4,W
0096C:  ADDWFC 02,F
0096E:  MOVLW  00
00970:  CLRF   01
00972:  ADDWFC 01,F
00974:  MOVF   5E,W
00976:  MULWF  x60
00978:  MOVF   FF3,W
0097A:  ADDWF  x64,F
0097C:  MOVF   FF4,W
0097E:  ADDWFC 03,F
00980:  MOVLW  00
00982:  ADDWFC 02,F
00984:  ADDWFC 01,F
00986:  MOVF   5D,W
00988:  MULWF  x60
0098A:  MOVF   FF3,W
0098C:  ADDWF  03,F
0098E:  MOVF   FF4,W
00990:  ADDWFC 02,F
00992:  MOVLW  00
00994:  ADDWFC 01,F
00996:  MOVF   5C,W
00998:  MULWF  x60
0099A:  MOVF   FF3,W
0099C:  ADDWF  02,F
0099E:  MOVF   FF4,W
009A0:  ADDWFC 01,F
009A2:  INCF   00,F
009A4:  BTFSC  01.7
009A6:  BRA    09B2
009A8:  RLCF   x64,F
009AA:  RLCF   03,F
009AC:  RLCF   02,F
009AE:  RLCF   01,F
009B0:  DECF   00,F
009B2:  MOVLW  00
009B4:  BTFSS  x64.7
009B6:  BRA    09CC
009B8:  INCF   03,F
009BA:  ADDWFC 02,F
009BC:  ADDWFC 01,F
009BE:  MOVF   01,W
009C0:  BNZ   09CC
009C2:  MOVF   02,W
009C4:  BNZ   09CC
009C6:  MOVF   03,W
009C8:  BNZ   09CC
009CA:  INCF   00,F
009CC:  BTFSC  x63.7
009CE:  BSF    01.7
009D0:  BTFSS  x63.7
009D2:  BCF    01.7
009D4:  BRA    09DE
009D6:  CLRF   00
009D8:  CLRF   01
009DA:  CLRF   02
009DC:  CLRF   03
009DE:  RETURN 0
009E0:  MOVF   52,W
009E2:  BTFSC  FD8.2
009E4:  BRA    0B30
009E6:  MOVWF  5E
009E8:  MOVF   56,W
009EA:  BTFSC  FD8.2
009EC:  BRA    0B30
009EE:  SUBWF  5E,F
009F0:  BNC   09FC
009F2:  MOVLW  7F
009F4:  ADDWF  5E,F
009F6:  BTFSC  FD8.0
009F8:  BRA    0B30
009FA:  BRA    0A08
009FC:  MOVLW  81
009FE:  SUBWF  5E,F
00A00:  BTFSS  FD8.0
00A02:  BRA    0B30
00A04:  BTFSC  FD8.2
00A06:  BRA    0B30
00A08:  MOVFF  5E,00
00A0C:  CLRF   01
00A0E:  CLRF   02
00A10:  CLRF   03
00A12:  CLRF   5D
00A14:  MOVFF  53,5C
00A18:  BSF    5C.7
00A1A:  MOVFF  54,5B
00A1E:  MOVFF  55,5A
00A22:  MOVLW  19
00A24:  MOVWF  5E
00A26:  MOVF   59,W
00A28:  SUBWF  5A,F
00A2A:  BC    0A46
00A2C:  MOVLW  01
00A2E:  SUBWF  5B,F
00A30:  BC    0A46
00A32:  SUBWF  5C,F
00A34:  BC    0A46
00A36:  SUBWF  5D,F
00A38:  BC    0A46
00A3A:  INCF   5D,F
00A3C:  INCF   5C,F
00A3E:  INCF   5B,F
00A40:  MOVF   59,W
00A42:  ADDWF  5A,F
00A44:  BRA    0A96
00A46:  MOVF   58,W
00A48:  SUBWF  5B,F
00A4A:  BC    0A70
00A4C:  MOVLW  01
00A4E:  SUBWF  5C,F
00A50:  BC    0A70
00A52:  SUBWF  5D,F
00A54:  BC    0A70
00A56:  INCF   5D,F
00A58:  INCF   5C,F
00A5A:  MOVF   58,W
00A5C:  ADDWF  5B,F
00A5E:  MOVF   59,W
00A60:  ADDWF  5A,F
00A62:  BNC   0A96
00A64:  INCF   5B,F
00A66:  BNZ   0A96
00A68:  INCF   5C,F
00A6A:  BNZ   0A96
00A6C:  INCF   5D,F
00A6E:  BRA    0A96
00A70:  MOVF   57,W
00A72:  IORLW  80
00A74:  SUBWF  5C,F
00A76:  BC    0A94
00A78:  MOVLW  01
00A7A:  SUBWF  5D,F
00A7C:  BC    0A94
00A7E:  INCF   5D,F
00A80:  MOVF   57,W
00A82:  IORLW  80
00A84:  ADDWF  5C,F
00A86:  MOVF   58,W
00A88:  ADDWF  5B,F
00A8A:  BNC   0A5E
00A8C:  INCF   5C,F
00A8E:  BNZ   0A5E
00A90:  INCF   5D,F
00A92:  BRA    0A5E
00A94:  BSF    03.0
00A96:  DECFSZ 5E,F
00A98:  BRA    0A9C
00A9A:  BRA    0AB2
00A9C:  BCF    FD8.0
00A9E:  RLCF   5A,F
00AA0:  RLCF   5B,F
00AA2:  RLCF   5C,F
00AA4:  RLCF   5D,F
00AA6:  BCF    FD8.0
00AA8:  RLCF   03,F
00AAA:  RLCF   02,F
00AAC:  RLCF   01,F
00AAE:  RLCF   5F,F
00AB0:  BRA    0A26
00AB2:  BTFSS  5F.0
00AB4:  BRA    0AC2
00AB6:  BCF    FD8.0
00AB8:  RRCF   01,F
00ABA:  RRCF   02,F
00ABC:  RRCF   03,F
00ABE:  RRCF   5F,F
00AC0:  BRA    0AC6
00AC2:  DECF   00,F
00AC4:  BZ    0B30
00AC6:  BTFSC  5F.7
00AC8:  BRA    0B06
00ACA:  BCF    FD8.0
00ACC:  RLCF   5A,F
00ACE:  RLCF   5B,F
00AD0:  RLCF   5C,F
00AD2:  RLCF   5D,F
00AD4:  MOVF   59,W
00AD6:  SUBWF  5A,F
00AD8:  BC    0AE8
00ADA:  MOVLW  01
00ADC:  SUBWF  5B,F
00ADE:  BC    0AE8
00AE0:  SUBWF  5C,F
00AE2:  BC    0AE8
00AE4:  SUBWF  5D,F
00AE6:  BNC   0B1C
00AE8:  MOVF   58,W
00AEA:  SUBWF  5B,F
00AEC:  BC    0AF8
00AEE:  MOVLW  01
00AF0:  SUBWF  5C,F
00AF2:  BC    0AF8
00AF4:  SUBWF  5D,F
00AF6:  BNC   0B1C
00AF8:  MOVF   57,W
00AFA:  IORLW  80
00AFC:  SUBWF  5C,F
00AFE:  BC    0B06
00B00:  MOVLW  01
00B02:  SUBWF  5D,F
00B04:  BNC   0B1C
00B06:  INCF   03,F
00B08:  BNZ   0B1C
00B0A:  INCF   02,F
00B0C:  BNZ   0B1C
00B0E:  INCF   01,F
00B10:  BNZ   0B1C
00B12:  INCF   00,F
00B14:  BZ    0B30
00B16:  RRCF   01,F
00B18:  RRCF   02,F
00B1A:  RRCF   03,F
00B1C:  MOVFF  53,5E
00B20:  MOVF   57,W
00B22:  XORWF  5E,F
00B24:  BTFSS  5E.7
00B26:  BRA    0B2C
00B28:  BSF    01.7
00B2A:  BRA    0B38
00B2C:  BCF    01.7
00B2E:  BRA    0B38
00B30:  CLRF   00
00B32:  CLRF   01
00B34:  CLRF   02
00B36:  CLRF   03
00B38:  GOTO   128E (RETURN)
00B3C:  MOVFF  FEA,56
00B40:  MOVFF  FE9,55
00B44:  SWAPF  4F,W
00B46:  IORLW  F0
00B48:  MOVWF  51
00B4A:  ADDWF  51,F
00B4C:  ADDLW  E2
00B4E:  MOVWF  52
00B50:  ADDLW  32
00B52:  MOVWF  54
00B54:  MOVF   4F,W
00B56:  ANDLW  0F
00B58:  ADDWF  52,F
00B5A:  ADDWF  52,F
00B5C:  ADDWF  54,F
00B5E:  ADDLW  E9
00B60:  MOVWF  53
00B62:  ADDWF  53,F
00B64:  ADDWF  53,F
00B66:  SWAPF  4E,W
00B68:  ANDLW  0F
00B6A:  ADDWF  53,F
00B6C:  ADDWF  54,F
00B6E:  RLCF   53,F
00B70:  RLCF   54,F
00B72:  COMF   54,F
00B74:  RLCF   54,F
00B76:  MOVF   4E,W
00B78:  ANDLW  0F
00B7A:  ADDWF  54,F
00B7C:  RLCF   51,F
00B7E:  MOVLW  07
00B80:  MOVWF  50
00B82:  MOVLW  0A
00B84:  DECF   53,F
00B86:  ADDWF  54,F
00B88:  BNC   0B84
00B8A:  DECF   52,F
00B8C:  ADDWF  53,F
00B8E:  BNC   0B8A
00B90:  DECF   51,F
00B92:  ADDWF  52,F
00B94:  BNC   0B90
00B96:  DECF   50,F
00B98:  ADDWF  51,F
00B9A:  BNC   0B96
00B9C:  CLRF   FEA
00B9E:  MOVLW  50
00BA0:  MOVWF  FE9
00BA2:  MOVLW  07
00BA4:  ANDWF  55,W
00BA6:  BCF    55.6
00BA8:  ADDWF  FE9,F
00BAA:  MOVLW  00
00BAC:  ADDWFC FEA,F
00BAE:  MOVF   FE9,W
00BB0:  SUBLW  54
00BB2:  BNZ   0BBA
00BB4:  MOVF   FEA,F
00BB6:  BNZ   0BBA
00BB8:  BSF    55.6
00BBA:  MOVF   FEF,W
00BBC:  MOVWF  00
00BBE:  BNZ   0BD0
00BC0:  BTFSC  55.6
00BC2:  BRA    0BD0
00BC4:  BTFSC  55.4
00BC6:  BRA    0BE0
00BC8:  BTFSC  55.3
00BCA:  BRA    0BD0
00BCC:  MOVLW  20
00BCE:  BRA    0BD6
00BD0:  BSF    55.3
00BD2:  BCF    55.4
00BD4:  MOVLW  30
00BD6:  ADDWF  00,F
00BD8:  MOVF   00,W
00BDA:  BTFSS  F9E.4
00BDC:  BRA    0BDA
00BDE:  MOVWF  FAD
00BE0:  MOVF   FEE,W
00BE2:  BTFSS  55.6
00BE4:  BRA    0BAE
00BE6:  RETURN 0
00BE8:  MOVF   5B,W
00BEA:  SUBLW  B6
00BEC:  MOVWF  5B
00BEE:  CLRF   03
00BF0:  MOVFF  5C,5F
00BF4:  BSF    5C.7
00BF6:  BCF    FD8.0
00BF8:  RRCF   5C,F
00BFA:  RRCF   5D,F
00BFC:  RRCF   5E,F
00BFE:  RRCF   03,F
00C00:  RRCF   02,F
00C02:  RRCF   01,F
00C04:  RRCF   00,F
00C06:  DECFSZ 5B,F
00C08:  BRA    0BF6
00C0A:  BTFSS  5F.7
00C0C:  BRA    0C24
00C0E:  COMF   00,F
00C10:  COMF   01,F
00C12:  COMF   02,F
00C14:  COMF   03,F
00C16:  INCF   00,F
00C18:  BTFSC  FD8.2
00C1A:  INCF   01,F
00C1C:  BTFSC  FD8.2
00C1E:  INCF   02,F
00C20:  BTFSC  FD8.2
00C22:  INCF   03,F
00C24:  GOTO   0C76 (RETURN)
00C28:  MOVF   FE9,W
00C2A:  MOVWF  53
00C2C:  MOVF   52,W
00C2E:  MOVWF  55
00C30:  BZ    0C64
00C32:  MOVFF  51,5E
00C36:  MOVFF  50,5D
00C3A:  MOVFF  4F,5C
00C3E:  MOVFF  4E,5B
00C42:  CLRF   x62
00C44:  CLRF   x61
00C46:  MOVLW  20
00C48:  MOVWF  x60
00C4A:  MOVLW  82
00C4C:  MOVWF  5F
00C4E:  RCALL  08EE
00C50:  MOVFF  03,51
00C54:  MOVFF  02,50
00C58:  MOVFF  01,4F
00C5C:  MOVFF  00,4E
00C60:  DECFSZ 55,F
00C62:  BRA    0C32
00C64:  MOVFF  51,5E
00C68:  MOVFF  50,5D
00C6C:  MOVFF  4F,5C
00C70:  MOVFF  4E,5B
00C74:  BRA    0BE8
00C76:  MOVFF  03,51
00C7A:  MOVFF  02,50
00C7E:  MOVFF  01,4F
00C82:  MOVFF  00,4E
00C86:  BTFSS  51.7
00C88:  BRA    0CA4
00C8A:  DECF   53,F
00C8C:  BSF    53.5
00C8E:  COMF   4E,F
00C90:  COMF   4F,F
00C92:  COMF   50,F
00C94:  COMF   51,F
00C96:  INCF   4E,F
00C98:  BTFSC  FD8.2
00C9A:  INCF   4F,F
00C9C:  BTFSC  FD8.2
00C9E:  INCF   50,F
00CA0:  BTFSC  FD8.2
00CA2:  INCF   51,F
00CA4:  MOVLW  3B
00CA6:  MOVWF  5A
00CA8:  MOVLW  9A
00CAA:  MOVWF  59
00CAC:  MOVLW  CA
00CAE:  MOVWF  58
00CB0:  CLRF   57
00CB2:  MOVLW  0A
00CB4:  MOVWF  55
00CB6:  MOVF   52,W
00CB8:  BTFSC  FD8.2
00CBA:  INCF   53,F
00CBC:  BSF    FD8.1
00CBE:  CLRF   FEA
00CC0:  MOVLW  4E
00CC2:  MOVWF  FE9
00CC4:  MOVFF  51,5E
00CC8:  MOVFF  50,5D
00CCC:  MOVFF  4F,5C
00CD0:  MOVFF  4E,5B
00CD4:  MOVFF  5A,62
00CD8:  MOVFF  59,61
00CDC:  MOVFF  58,60
00CE0:  MOVFF  57,5F
00CE4:  RCALL  06EC
00CE6:  MOVF   01,W
00CE8:  MOVF   00,F
00CEA:  BNZ   0D0A
00CEC:  INCF   52,W
00CEE:  SUBWF  55,W
00CF0:  BZ    0D0A
00CF2:  MOVF   53,W
00CF4:  BZ    0D0E
00CF6:  ANDLW  0F
00CF8:  SUBWF  55,W
00CFA:  BZ    0CFE
00CFC:  BC    0D74
00CFE:  BTFSC  53.7
00D00:  BRA    0D74
00D02:  BTFSC  53.6
00D04:  BRA    0D0E
00D06:  MOVLW  20
00D08:  BRA    0D6A
00D0A:  MOVLW  20
00D0C:  ANDWF  53,F
00D0E:  BTFSS  53.5
00D10:  BRA    0D2C
00D12:  BCF    53.5
00D14:  MOVF   52,W
00D16:  BTFSS  FD8.2
00D18:  DECF   53,F
00D1A:  MOVF   00,W
00D1C:  MOVWF  53
00D1E:  MOVLW  2D
00D20:  BTFSS  F9E.4
00D22:  BRA    0D20
00D24:  MOVWF  FAD
00D26:  MOVF   53,W
00D28:  MOVWF  00
00D2A:  CLRF   53
00D2C:  MOVF   52,W
00D2E:  SUBWF  55,W
00D30:  BNZ   0D48
00D32:  MOVF   00,W
00D34:  MOVWF  53
00D36:  MOVLW  2E
00D38:  BTFSS  F9E.4
00D3A:  BRA    0D38
00D3C:  MOVWF  FAD
00D3E:  MOVF   53,W
00D40:  MOVWF  00
00D42:  MOVLW  20
00D44:  ANDWF  53,F
00D46:  MOVLW  00
00D48:  MOVLW  30
00D4A:  BTFSS  53.5
00D4C:  BRA    0D6A
00D4E:  BCF    53.5
00D50:  MOVF   52,W
00D52:  BTFSS  FD8.2
00D54:  DECF   53,F
00D56:  MOVF   00,W
00D58:  MOVWF  53
00D5A:  MOVLW  2D
00D5C:  BTFSS  F9E.4
00D5E:  BRA    0D5C
00D60:  MOVWF  FAD
00D62:  MOVF   53,W
00D64:  MOVWF  00
00D66:  CLRF   53
00D68:  MOVLW  30
00D6A:  ADDWF  00,F
00D6C:  MOVF   00,W
00D6E:  BTFSS  F9E.4
00D70:  BRA    0D6E
00D72:  MOVWF  FAD
00D74:  BCF    FD8.1
00D76:  MOVFF  5A,5E
00D7A:  MOVFF  59,5D
00D7E:  MOVFF  58,5C
00D82:  MOVFF  57,5B
00D86:  CLRF   x62
00D88:  CLRF   x61
00D8A:  CLRF   x60
00D8C:  MOVLW  0A
00D8E:  MOVWF  5F
00D90:  RCALL  06EC
00D92:  MOVFF  03,5A
00D96:  MOVFF  02,59
00D9A:  MOVFF  01,58
00D9E:  MOVFF  00,57
00DA2:  DECFSZ 55,F
00DA4:  BRA    0CBC
00DA6:  GOTO   134E (RETURN)
.................... 
.................... #list
.................... 
.................... 
.................... 
.................... 
.................... 
.................... #FUSES NOWDT                    //No Watch Dog Timer
.................... #device ADC = 12
.................... #use delay(crystal=16000000)
*
005EA:  CLRF   FEA
005EC:  MOVLW  5B
005EE:  MOVWF  FE9
005F0:  MOVF   FEF,W
005F2:  BZ    0610
005F4:  MOVLW  05
005F6:  MOVWF  01
005F8:  CLRF   00
005FA:  DECFSZ 00,F
005FC:  BRA    05FA
005FE:  DECFSZ 01,F
00600:  BRA    05F8
00602:  MOVLW  2E
00604:  MOVWF  00
00606:  DECFSZ 00,F
00608:  BRA    0606
0060A:  BRA    060C
0060C:  DECFSZ FEF,F
0060E:  BRA    05F4
00610:  RETURN 0
.................... 
.................... #pin_select U1TX = PIN_F7
.................... #pin_select U1RX = PIN_F5
.................... #use rs232(baud=9600, UART1, parity=N,bits=8,stream=PORT1)
.................... 
.................... #pin_select U2TX = PIN_D3
.................... #pin_select U2RX =    PIN_D2
.................... #use rs232(baud=9600, UART2, parity=N,bits=8,stream=PORT2)
.................... 
.................... #pin_select U3TX = PIN_E5
.................... #pin_select U3RX = PIN_E4
.................... #use rs232(baud=9600, UART3, parity=N,bits=8,stream=PORT3)
.................... 
.................... #pin_select U4TX = PIN_E3
.................... #pin_select U4RX = PIN_F2
.................... #use rs232(baud=9600, UART4, parity=N,bits=8,stream=PORT4)
.................... 
.................... //#define SPI1_CS PIN_A2
.................... //#use spi (MASTER, CLK = PIN_A3, DI = PIN_A0, DO = PIN_A1,BAUD=1000000, MODE=0, BITS=8, STREAM=SPI1)
.................... 
.................... #define SPI2_CS PIN_B3
.................... #use spi (MASTER, CLK = PIN_B2, DI = PIN_B5, DO = PIN_B4,BAUD=1000000, MODE=0, BITS=8, STREAM=SPI2)
*
00462:  MOVF   x67,W
00464:  SUBLW  08
00466:  BZ    0470
00468:  MOVWF  x69
0046A:  RLCF   x66,F
0046C:  DECFSZ x69,F
0046E:  BRA    046A
00470:  BSF    F93.5
00472:  BCF    F93.4
00474:  BCF    F93.2
00476:  BCF    F8A.2
00478:  MOVFF  67,69
0047C:  BTFSS  x66.7
0047E:  BCF    F8A.4
00480:  BTFSC  x66.7
00482:  BSF    F8A.4
00484:  RLCF   x66,F
00486:  BSF    F8A.2
00488:  RLCF   01,F
0048A:  BTFSS  F81.5
0048C:  BCF    01.0
0048E:  BTFSC  F81.5
00490:  BSF    01.0
00492:  BCF    F8A.2
00494:  DECFSZ x69,F
00496:  BRA    047C
00498:  RETURN 0
.................... 
.................... //#define SPI3_CS PIN_E2
.................... //#use spi (MASTER, CLK = PIN_E1, DI = PIN_E0, DO = PIN_E6,BAUD=1000000, MODE=0, BITS=8, STREAM=SPI3)
.................... 
.................... 
.................... 
.................... #define DIO_3 PIN_G0
.................... #define DIO_4 PIN_G1
.................... #define DIO_5 PIN_G2
.................... #define DIO_6 PIN_G3
.................... #define DIO_8 PIN_G4
.................... #define DIO_12 PIN_F6
.................... //#define DIO_27 PIN_A5
.................... #define DIO_28 PIN_A4
.................... #define DIO_29 PIN_C1
.................... #define DIO_30 PIN_C0
.................... #define DIO_31 PIN_C6
.................... #define DIO_32 PIN_C7
.................... #define DIO_33 PIN_C2
.................... #define DIO_34 PIN_C3
.................... #define DIO_35 PIN_C4
.................... #define DIO_36 PIN_C5
.................... #define DIO_47 PIN_B1
.................... #define DIO_48 PIN_B0
.................... #define DIO_49 PIN_D7
.................... #define DIO_50 PIN_D6
.................... #define DIO_51 PIN_D5
.................... #define DIO_52 PIN_D4
.................... #define DIO_55 PIN_D1
.................... #define DIO_58 PIN_D0
.................... #define DIO_59 PIN_E7
.................... 
.................... #include <GDNS_tbd_FlashOperation.c>
.................... #include <GDNS_tbd_FlashOperation.h>
.................... #define DEBUG
.................... #define USE_FLASH1G     //MT25QL01GBBB:SMF,CF
.................... //#define USE_FLASH128M   //MT25QL128ABA:PICF,GF
.................... 
.................... //////////////////////////////port select//////////////////////////////////////
.................... #ifdef DEBUG
....................    #define DEBUG_PORT PORT1
.................... #endif
.................... 
.................... #ifdef USE_FLASH1G
....................    #define FLASH1G SPI2//port for 1 Gbit Flash
....................    #define FLASH1G_CS PIN_B3
.................... #endif
.................... 
.................... #ifdef USE_FLASH128M
....................    #define FLASH128M SPI2//port for 128 Mbit Flash
....................    #define FLASH128M_CS PIN_B3
.................... #endif
.................... 
.................... ////////////////////////////////CMD List///////////////////////////////////////
.................... #define READ_ID                     0x9F
.................... #define READ_STATUS_REGISTER        0x05
.................... #define READ                        0x03
.................... #define READ_4BYTE                  0x13
.................... #define WRITE_ENABLE                0x06
.................... #define PAGE_PROGRAM                0x02
.................... #define PAGE_PROGRAM_4BYTE          0x12
.................... #define SUBSECTOR_4KB_ERASE         0x20
.................... #define SUBSECTOR_4KB_ERASE_4BYTE   0x21
.................... #define SUBSECTOR_32KB_ERASE        0x52
.................... #define SUBSECTOR_32KB_ERASE_4BYTE  0x5C
.................... #define SECTOR_ERASE                0xD8
.................... #define SECTOR_ERASE_4BYTE          0xDC
.................... 
.................... ///////////////////////////function List///////////////////////////////////////
.................... #ifdef USE_FLASH1G
....................    int8 status_register_flash1g();                                                                       //bit[7:2]status register control bit,bit[1]write enable bit T:ennable F:disable,bit[0]write in progress bit T:busy F:ready
....................    int8 read_id_flash1g();                                                                               //T:Flash id read successfully(connect OK),F:Flash id read failed
....................    void sector_erase_flash1g(unsigned int32 sector_address);                                             //64kByte erase
....................    void subsector_32kByte_erase_flash1g(unsigned int32 subsector_address);                               //32kByte erase
....................    void subsector_4kByte_erase_flash1g(unsigned int32 subsector_address);                                //4kByte erase
....................    int8 read_data_byte_flash1g(unsigned int32 read_address);                                             //read 1 Byte data
....................    void read_data_bytes_flash1g(unsigned int32 read_address,unsigned int32 amount,int8 *read_data);      //read multi Bytes data(max 128 MByte) and store to "read data"
....................    void write_data_byte_flash1g(unsigned int32 write_address,int8 write_data);                           //write 1 Byte data to flash
....................    void write_data_bytes_flash1g(unsigned int32 write_address,int8 amount,int8 *write_data);             //write multi Bytes data(max128 Byte) to flash
.................... #endif
....................    
.................... #ifdef USE_FLASH128M
....................    int8 status_register_flash128m();                                                                     //bit[7:2]status register control bit,bit[1]write enable bit T:ennable F:disable,bit[0]write in progress bit T:busy F:ready
....................    int8 read_id_flash128m();                                                                             //T:Flash id read successfully(connect OK),F:Flash id read failed
....................    void sector_erase_flash128m(unsigned int32 sector_address);                                           //64kByte erase
....................    void subsector_32kByte_erase_flash128m(unsigned int32 subsector_address);                             //32kByte erase
....................    void subsector_4kByte_erase_flash128m(unsigned int32 subsector_address);                              //4kByte erase
....................    int8 read_data_byte_flash128m(unsigned int32 read_address);                                           //read 1 Byte data
....................    void read_data_bytes_flash128m(unsigned int32 read_address,unsigned int32 amount,int8 *read_data);    //read multi Bytes data(max 128 MByte) and store to "read data"
....................    void write_data_byte_flash128m(unsigned int32 write_address,int8 write_data);                         //write 1 Byte data to flash
....................    void write_data_bytes_flash128m(unsigned int32 write_address,int8 amount,int8 *write_data);           //write multi Bytes data(max128 Byte) to flash
.................... #endif
....................    
.................... 
.................... 
.................... void flash_setting()
.................... {
....................    #ifdef USE_FLASH1G
....................       output_high(FLASH1G_CS);
*
0045A:  BCF    F93.3
0045C:  BSF    F8A.3
....................    #endif
....................    #ifdef USE_FLASH128M
0045E:  GOTO   0FEC (RETURN)
....................       output_high(FLASH128M_CS);
....................    #endif
.................... }
.................... 
.................... #ifdef USE_FLASH1G
....................    int8 status_register_flash1g()
....................    {
....................       int8 status_reg;
....................       output_low(FLASH1G_CS);                                              //lower the CS PIN
*
005A6:  BCF    F93.3
005A8:  BCF    F8A.3
....................       spi_xfer(FLASH1G,READ_STATUS_REGISTER);                              //READ STATUS REGISTER COMAND  (0x05)
005AA:  MOVLW  05
005AC:  MOVWF  x66
005AE:  MOVLW  08
005B0:  MOVWF  x67
005B2:  MOVLW  01
005B4:  MOVWF  x68
005B6:  RCALL  0462
....................       status_reg = spi_xfer(FLASH1G);
005B8:  MOVLW  01
005BA:  MOVWF  x66
005BC:  MOVLW  08
005BE:  MOVWF  x67
005C0:  MOVLW  01
005C2:  MOVWF  x68
005C4:  RCALL  0462
005C6:  MOVFF  01,5B
....................       output_high(FLASH1G_CS);                                             //take CS PIN higher back
005CA:  BCF    F93.3
005CC:  BSF    F8A.3
....................       #ifdef DEBUG
....................          if((status_reg & 0x01) == true)                                          //masking status bit   
005CE:  MOVF   5B,W
005D0:  ANDLW  01
005D2:  SUBLW  01
005D4:  BNZ   05E4
....................             fprintf(DEBUG_PORT,"1Gbit flash busy\n\r");
005D6:  MOVLW  BE
005D8:  MOVWF  FF6
005DA:  MOVLW  00
005DC:  MOVWF  FF7
005DE:  MOVLW  00
005E0:  MOVWF  FF8
005E2:  RCALL  0430
....................       #endif
....................       return status_reg;
005E4:  MOVFF  5B,01
005E8:  RETURN 0
....................    }
....................    
....................    int8 read_id_flash1g()//->success:True,fail:false
....................    {
....................       int8 chip_id[21];
....................       output_low(FLASH1G_CS);
*
004DC:  BCF    F93.3
004DE:  BCF    F8A.3
....................       for (int8 i = 0;i < 21;i++)
004E0:  CLRF   x63
004E2:  MOVF   x63,W
004E4:  SUBLW  14
004E6:  BNC   0560
....................       {
....................          if (i == 0)
004E8:  MOVF   x63,F
004EA:  BNZ   051C
....................          {
....................             chip_id[i] = spi_xfer(FLASH1G,READ_ID);
004EC:  CLRF   03
004EE:  MOVF   x63,W
004F0:  ADDLW  4E
004F2:  MOVWF  FE9
004F4:  MOVLW  00
004F6:  ADDWFC 03,W
004F8:  MOVWF  FEA
004FA:  MOVLW  9F
004FC:  MOVWF  x66
004FE:  MOVLW  08
00500:  MOVWF  x67
00502:  MOVLW  01
00504:  MOVWF  x68
00506:  RCALL  0462
00508:  MOVFF  01,FEF
....................             #ifdef DEBUG
....................                fprintf(DEBUG_PORT,"Read ID:");
0050C:  MOVLW  D2
0050E:  MOVWF  FF6
00510:  MOVLW  00
00512:  MOVWF  FF7
00514:  MOVLW  00
00516:  MOVWF  FF8
00518:  RCALL  0430
....................             #endif
....................          }
0051A:  BRA    055C
....................          else
....................          {
....................             chip_id[i] = spi_xfer(FLASH1G);
0051C:  CLRF   03
0051E:  MOVF   x63,W
00520:  ADDLW  4E
00522:  MOVWF  FE9
00524:  MOVLW  00
00526:  ADDWFC 03,W
00528:  MOVWF  FEA
0052A:  MOVLW  01
0052C:  MOVWF  x66
0052E:  MOVLW  08
00530:  MOVWF  x67
00532:  MOVLW  01
00534:  MOVWF  x68
00536:  RCALL  0462
00538:  MOVFF  01,FEF
....................             #ifdef DEBUG
....................                fprintf(DEBUG_PORT,"%x ",chip_id[i]);
0053C:  CLRF   03
0053E:  MOVF   x63,W
00540:  ADDLW  4E
00542:  MOVWF  FE9
00544:  MOVLW  00
00546:  ADDWFC 03,W
00548:  MOVWF  FEA
0054A:  MOVFF  FEF,65
0054E:  MOVLW  57
00550:  MOVWF  x66
00552:  RCALL  049A
00554:  MOVLW  20
00556:  BTFSS  F9E.4
00558:  BRA    0556
0055A:  MOVWF  FAD
....................             #endif   
....................          }
0055C:  INCF   x63,F
0055E:  BRA    04E2
....................       }
....................       output_high(FLASH1G_CS);
00560:  BCF    F93.3
00562:  BSF    F8A.3
....................       #ifdef DEBUG
....................          fprintf(DEBUG_PORT,"\r\n");
00564:  MOVLW  0D
00566:  BTFSS  F9E.4
00568:  BRA    0566
0056A:  MOVWF  FAD
0056C:  MOVLW  0A
0056E:  BTFSS  F9E.4
00570:  BRA    056E
00572:  MOVWF  FAD
....................       #endif
....................       //chip id check
....................       if(chip_id[1] == 0x20)
00574:  MOVF   4F,W
00576:  SUBLW  20
00578:  BNZ   0590
....................       {  
....................          #ifdef DEBUG
....................             fprintf(DEBUG_PORT,"flash connect OK\r\n");
0057A:  MOVLW  DC
0057C:  MOVWF  FF6
0057E:  MOVLW  00
00580:  MOVWF  FF7
00582:  MOVLW  00
00584:  MOVWF  FF8
00586:  RCALL  0430
....................          #endif
....................          return true;
00588:  MOVLW  01
0058A:  MOVWF  01
0058C:  BRA    05A2
....................       }
0058E:  BRA    05A2
....................       else
....................       {
....................          #ifdef DEBUG
....................             fprintf(DEBUG_PORT,"flash not connect\r\n");
00590:  MOVLW  F0
00592:  MOVWF  FF6
00594:  MOVLW  00
00596:  MOVWF  FF7
00598:  MOVLW  00
0059A:  MOVWF  FF8
0059C:  RCALL  0430
....................          #endif
....................          return false;
0059E:  MOVLW  00
005A0:  MOVWF  01
....................       }
005A2:  GOTO   0FF0 (RETURN)
....................    }
....................    
....................    void sector_erase_flash1g(unsigned int32 sector_address)
*
00612:  CLRF   56
....................    {
....................       unsigned int8 address[4];
....................       unsigned int8 timeout_counter = 0;
....................       
....................       address[0]  = (unsigned int8)((sector_address>>24) & 0xff);   // 0x _ _ 00 00 00
00614:  MOVFF  51,52
....................       address[1]  = (unsigned int8)((sector_address>>16) & 0xff);   // 0x 00 _ _ 00 00
00618:  MOVFF  50,53
....................       address[2]  = (unsigned int8)((sector_address>>8) & 0xff);    // 0x 00 00 _ _ 00
0061C:  MOVFF  4F,54
....................       address[3]  = (unsigned int8)((sector_address) & 0xff);       // 0x 00 00 00 _ _
00620:  MOVFF  4E,55
....................       
....................       //Write enable sequence
....................       output_low(FLASH1G_CS);
00624:  BCF    F93.3
00626:  BCF    F8A.3
....................       spi_xfer(FLASH1G,WRITE_ENABLE);
00628:  MOVLW  06
0062A:  MOVWF  x66
0062C:  MOVLW  08
0062E:  MOVWF  x67
00630:  MOVLW  01
00632:  MOVWF  x68
00634:  RCALL  0462
....................       output_high(FLASH1G_CS);
00636:  BCF    F93.3
00638:  BSF    F8A.3
....................       //Write enabled
....................       
....................       output_low(FLASH1G_CS);
0063A:  BCF    F93.3
0063C:  BCF    F8A.3
....................       ///////////////////////////////////////////////////////////////////
....................       spi_xfer(FLASH1G,SECTOR_ERASE_4BYTE); //SECTOR ERASE COMAND   (0xDC)
0063E:  MOVLW  DC
00640:  MOVWF  x66
00642:  MOVLW  08
00644:  MOVWF  x67
00646:  MOVLW  01
00648:  MOVWF  x68
0064A:  RCALL  0462
....................       
....................       spi_xfer(FLASH1G,address[0]);   
0064C:  MOVFF  52,66
00650:  MOVLW  08
00652:  MOVWF  x67
00654:  MOVLW  01
00656:  MOVWF  x68
00658:  RCALL  0462
....................       spi_xfer(FLASH1G,address[1]);    
0065A:  MOVFF  53,66
0065E:  MOVLW  08
00660:  MOVWF  x67
00662:  MOVLW  01
00664:  MOVWF  x68
00666:  RCALL  0462
....................       spi_xfer(FLASH1G,address[2]);    
00668:  MOVFF  54,66
0066C:  MOVLW  08
0066E:  MOVWF  x67
00670:  MOVLW  01
00672:  MOVWF  x68
00674:  RCALL  0462
....................       spi_xfer(FLASH1G,address[3]);
00676:  MOVFF  55,66
0067A:  MOVLW  08
0067C:  MOVWF  x67
0067E:  MOVLW  01
00680:  MOVWF  x68
00682:  RCALL  0462
....................       //////////////////////////////////////////////////////////////////
.................... 
....................       output_high(FLASH1G_CS);            //take CS PIN higher back
00684:  BCF    F93.3
00686:  BSF    F8A.3
....................       
....................       while((status_register_flash1g() & 0x01) == 1)                                          //masking status bit
00688:  RCALL  05A6
0068A:  MOVF   01,W
0068C:  ANDLW  01
0068E:  SUBLW  01
00690:  BNZ   06C0
....................       {
....................          if(timeout_counter > 10)
00692:  MOVF   56,W
00694:  SUBLW  0A
00696:  BC    06A0
....................             delay_ms(200);
00698:  MOVLW  C8
0069A:  MOVWF  5B
0069C:  RCALL  05EA
0069E:  BRA    06A6
....................          else
....................             delay_ms(10);   
006A0:  MOVLW  0A
006A2:  MOVWF  5B
006A4:  RCALL  05EA
....................          
....................          if(timeout_counter > 100)
006A6:  MOVF   56,W
006A8:  SUBLW  64
006AA:  BC    06BC
....................          {
....................             #ifdef DEBUG
....................                fprintf(DEBUG_PORT,"flash timeout");
006AC:  MOVLW  04
006AE:  MOVWF  FF6
006B0:  MOVLW  01
006B2:  MOVWF  FF7
006B4:  MOVLW  00
006B6:  MOVWF  FF8
006B8:  RCALL  0430
....................             #endif
....................             break;
006BA:  BRA    06C0
....................          }  
....................          timeout_counter++;
006BC:  INCF   56,F
006BE:  BRA    0688
....................       }
....................       return;
006C0:  GOTO   10B8 (RETURN)
....................    }
....................    
....................    void subsector_32kByte_erase_flash1g(unsigned int32 subsector_address)
....................    {
....................       unsigned int8 address[4];
....................       unsigned int8 timeout_counter = 0;
....................       
....................       address[0]  = (unsigned int8)((subsector_address>>24) & 0xff);   // 0x _ _ 00 00 00
....................       address[1]  = (unsigned int8)((subsector_address>>16) & 0xff);   // 0x 00 _ _ 00 00
....................       address[2]  = (unsigned int8)((subsector_address>>8) & 0xff);    // 0x 00 00 _ _ 00
....................       address[3]  = (unsigned int8)((subsector_address) & 0xff);       // 0x 00 00 00 _ _
....................       
....................       //Write enable sequence
....................       output_low(FLASH1G_CS);
....................       spi_xfer(FLASH1G,WRITE_ENABLE);
....................       output_high(FLASH1G_CS);
....................       //Write enabled
....................       
....................       output_low(FLASH1G_CS);
....................       ///////////////////////////////////////////////////////////////////
....................       spi_xfer(FLASH1G,SUBSECTOR_32KB_ERASE_4BYTE);
....................       
....................       spi_xfer(FLASH1G,address[0]);   
....................       spi_xfer(FLASH1G,address[1]);    
....................       spi_xfer(FLASH1G,address[2]);    
....................       spi_xfer(FLASH1G,address[3]);
....................       //////////////////////////////////////////////////////////////////
....................       output_high(FLASH1G_CS);            //take CS PIN higher back
....................       
....................       while((status_register_flash1g() & 0x01) == 1)                                          //masking status bit
....................       {
....................          if(timeout_counter > 10)
....................             delay_ms(200);
....................          else
....................             delay_ms(10);   
....................          
....................          if(timeout_counter > 100)
....................          {
....................             #ifdef DEBUG
....................                fprintf(DEBUG_PORT,"flash timeout");
....................             #endif
....................             break;
....................          }  
....................          timeout_counter++;
....................       }
....................    }
....................    
....................    void subsector_4kByte_erase_flash1g(unsigned int32 subsector_address)//4kByte erase
....................    {
....................       unsigned int8 address[4];
....................       unsigned int8 timeout_counter = 0;
....................       
....................       address[0]  = (unsigned int8)((subsector_address>>24) & 0xff);   // 0x _ _ 00 00 00
....................       address[1]  = (unsigned int8)((subsector_address>>16) & 0xff);   // 0x 00 _ _ 00 00
....................       address[2]  = (unsigned int8)((subsector_address>>8) & 0xff);    // 0x 00 00 _ _ 00
....................       address[3]  = (unsigned int8)((subsector_address) & 0xff);       // 0x 00 00 00 _ _
....................       
....................       //Write enable sequence
....................       output_low(FLASH1G_CS);
....................       spi_xfer(FLASH1G,WRITE_ENABLE);
....................       output_high(FLASH1G_CS);
....................       //Write enabled
....................       
....................       output_low(FLASH1G_CS);
....................       ///////////////////////////////////////////////////////////////////
....................       spi_xfer(FLASH1G,SUBSECTOR_4KB_ERASE_4BYTE);
....................       
....................       spi_xfer(FLASH1G,address[0]);   
....................       spi_xfer(FLASH1G,address[1]);    
....................       spi_xfer(FLASH1G,address[2]);    
....................       spi_xfer(FLASH1G,address[3]);
....................       //////////////////////////////////////////////////////////////////
....................       
....................       delay_us(2);
....................       output_high(FLASH1G_CS);            //take CS PIN higher back
....................       
....................       while((status_register_flash1g() & 0x01) == 1)                                          //masking status bit
....................       {
....................          if(timeout_counter > 10)
....................             delay_ms(200);
....................          else
....................             delay_ms(10);   
....................          
....................          if(timeout_counter > 100)
....................          {
....................             #ifdef DEBUG
....................                fprintf(DEBUG_PORT,"flash timeout");
....................             #endif
....................             break;
....................          }  
....................          timeout_counter++;
....................       }
....................    }
....................       
....................    int8 read_data_byte_flash1g(unsigned int32 read_address)
....................    {
....................       int8 read_data;
....................       unsigned int8 address[4];
....................       
....................       address[0]  = (unsigned int8)((read_address>>24) & 0xff);   // 0x _ _ 00 00 00
....................       address[1]  = (unsigned int8)((read_address>>16) & 0xff);   // 0x 00 _ _ 00 00
....................       address[2]  = (unsigned int8)((read_address>>8) & 0xff);    // 0x 00 00 _ _ 00
....................       address[3]  = (unsigned int8)((read_address) & 0xff);       // 0x 00 00 00 _ _
....................    
....................       output_low(FLASH1G_CS);
....................       ///////////////////////////////////////////////////////////////////
....................       spi_xfer(FLASH1G,READ_4BYTE);
....................       
....................       spi_xfer(FLASH1G,address[0]);   
....................       spi_xfer(FLASH1G,address[1]);    
....................       spi_xfer(FLASH1G,address[2]);    
....................       spi_xfer(FLASH1G,address[3]);
....................       read_data = spi_xfer(FLASH1G);
....................       //////////////////////////////////////////////////////////////////
....................       
....................       delay_us(2);
....................       output_high(FLASH1G_CS);            //take CS PIN higher back
....................       return read_data;
....................    }
....................       
....................    void read_data_bytes_flash1g(unsigned int32 read_address,int8 amount,int8 *read_data)
....................    {
....................       unsigned int8 address[4];
....................       
....................       address[0]  = (unsigned int8)((read_address>>24) & 0xff);   // 0x _ _ 00 00 00
*
00820:  MOVFF  55,59
....................       address[1]  = (unsigned int8)((read_address>>16) & 0xff);   // 0x 00 _ _ 00 00
00824:  MOVFF  54,5A
....................       address[2]  = (unsigned int8)((read_address>>8) & 0xff);    // 0x 00 00 _ _ 00
00828:  MOVFF  53,5B
....................       address[3]  = (unsigned int8)((read_address) & 0xff);       // 0x 00 00 00 _ _
0082C:  MOVFF  52,5C
....................    
....................       output_low(FLASH1G_CS);
00830:  BCF    F93.3
00832:  BCF    F8A.3
....................       ///////////////////////////////////////////////////////////////////
....................       spi_xfer(FLASH1G,READ_4BYTE);
00834:  MOVLW  13
00836:  MOVWF  x66
00838:  MOVLW  08
0083A:  MOVWF  x67
0083C:  MOVLW  01
0083E:  MOVWF  x68
00840:  RCALL  0462
....................       
....................       spi_xfer(FLASH1G,address[0]);   
00842:  MOVFF  59,66
00846:  MOVLW  08
00848:  MOVWF  x67
0084A:  MOVLW  01
0084C:  MOVWF  x68
0084E:  RCALL  0462
....................       spi_xfer(FLASH1G,address[1]);    
00850:  MOVFF  5A,66
00854:  MOVLW  08
00856:  MOVWF  x67
00858:  MOVLW  01
0085A:  MOVWF  x68
0085C:  RCALL  0462
....................       spi_xfer(FLASH1G,address[2]);    
0085E:  MOVFF  5B,66
00862:  MOVLW  08
00864:  MOVWF  x67
00866:  MOVLW  01
00868:  MOVWF  x68
0086A:  RCALL  0462
....................       spi_xfer(FLASH1G,address[3]);
0086C:  MOVFF  5C,66
00870:  MOVLW  08
00872:  MOVWF  x67
00874:  MOVLW  01
00876:  MOVWF  x68
00878:  RCALL  0462
....................       for(int8 i = 0;i < amount;i++)
0087A:  CLRF   5D
0087C:  MOVF   56,W
0087E:  SUBWF  5D,W
00880:  BC    08A4
....................          read_data[i] = spi_xfer(FLASH1G);
00882:  MOVF   5D,W
00884:  ADDWF  57,W
00886:  MOVWF  FE9
00888:  MOVLW  00
0088A:  ADDWFC 58,W
0088C:  MOVWF  FEA
0088E:  MOVLW  01
00890:  MOVWF  x66
00892:  MOVLW  08
00894:  MOVWF  x67
00896:  MOVLW  01
00898:  MOVWF  x68
0089A:  RCALL  0462
0089C:  MOVFF  01,FEF
008A0:  INCF   5D,F
008A2:  BRA    087C
....................       //////////////////////////////////////////////////////////////////
....................       
....................       delay_us(2);
008A4:  MOVLW  02
008A6:  MOVWF  00
008A8:  DECFSZ 00,F
008AA:  BRA    08A8
008AC:  NOP   
....................       output_high(FLASH1G_CS);            //take CS PIN higher back
008AE:  BCF    F93.3
008B0:  BSF    F8A.3
....................    
....................       return;
008B2:  GOTO   1206 (RETURN)
....................    }
....................    
....................    void write_data_byte_flash1g(unsigned int32 write_address,int8 write_data)
....................    {
....................       unsigned int8 address[4];
....................       unsigned int8 timeout_counter = 0;
....................       
....................       //Byte extraction
....................       address[0]  = (unsigned int8)((write_address>>24) & 0xff);                     // 0x _ _ 00 00 00
....................       address[1]  = (unsigned int8)((write_address>>16) & 0xff);                     // 0x 00 _ _ 00 00
....................       address[2]  = (unsigned int8)((write_address>>8) & 0xff);                      // 0x 00 00 _ _ 00
....................       address[3]  = (unsigned int8)((write_address) & 0xff);                         // 0x 00 00 00 _ _
....................       
....................       //Write enable sequence
....................       output_low(FLASH1G_CS);
....................       spi_xfer(FLASH1G,WRITE_ENABLE);
....................       output_high(FLASH1G_CS);
....................       //Write enabled
....................       
....................       output_low(FLASH1G_CS);
....................       ////////////////////////////////////////////////////////////////
....................       spi_xfer(FLASH1G,PAGE_PROGRAM_4BYTE);                                               //PAGE WRITE COMAND  (0x12)
....................       spi_xfer(FLASH1G,address[0]);
....................       spi_xfer(FLASH1G,address[1]);
....................       spi_xfer(FLASH1G,address[2]);
....................       spi_xfer(FLASH1G,address[3]);
....................       spi_xfer(FLASH1G,write_data);
....................       ////////////////////////////////////////////////////////////////
....................       
....................       output_high(FLASH1G_CS);          //take CS PIN higher back
....................       
....................       while((status_register_flash1g() & 0x01) == 1)                                          //masking status bit
....................       {
....................          if(timeout_counter > 10)
....................             delay_ms(200);
....................          else
....................             delay_ms(10);   
....................          
....................          if(timeout_counter > 100)
....................          {
....................             #ifdef DEBUG
....................                fprintf(DEBUG_PORT,"flash timeout");
....................             #endif
....................             break;
....................          }  
....................          timeout_counter++;
....................       }
....................       return;
....................    }
....................    
....................    void write_data_bytes_flash1g(unsigned int32 write_address,int8 amount,int8 *write_data)
*
00DAA:  CLRF   59
....................    {
....................       unsigned int8 address[4];
....................       unsigned int8 timeout_counter = 0;
....................       
....................       //Byte extraction
....................       address[0]  = (unsigned int8)((write_address>>24) & 0xff);                     // 0x _ _ 00 00 00
00DAC:  MOVFF  51,55
....................       address[1]  = (unsigned int8)((write_address>>16) & 0xff);                     // 0x 00 _ _ 00 00
00DB0:  MOVFF  50,56
....................       address[2]  = (unsigned int8)((write_address>>8) & 0xff);                      // 0x 00 00 _ _ 00
00DB4:  MOVFF  4F,57
....................       address[3]  = (unsigned int8)((write_address) & 0xff);                         // 0x 00 00 00 _ _
00DB8:  MOVFF  4E,58
....................       
....................       //Write enable sequence
....................       output_low(FLASH1G_CS);
00DBC:  BCF    F93.3
00DBE:  BCF    F8A.3
....................       spi_xfer(FLASH1G,WRITE_ENABLE);
00DC0:  MOVLW  06
00DC2:  MOVWF  x66
00DC4:  MOVLW  08
00DC6:  MOVWF  x67
00DC8:  MOVLW  01
00DCA:  MOVWF  x68
00DCC:  CALL   0462
....................       output_high(FLASH1G_CS);
00DD0:  BCF    F93.3
00DD2:  BSF    F8A.3
....................       //Write enabled
....................       
....................       output_low(FLASH1G_CS);
00DD4:  BCF    F93.3
00DD6:  BCF    F8A.3
....................       ////////////////////////////////////////////////////////////////
....................       spi_xfer(FLASH1G,PAGE_PROGRAM_4BYTE);                                               //PAGE WRITE COMAND  (0x12)
00DD8:  MOVLW  12
00DDA:  MOVWF  x66
00DDC:  MOVLW  08
00DDE:  MOVWF  x67
00DE0:  MOVLW  01
00DE2:  MOVWF  x68
00DE4:  CALL   0462
....................       spi_xfer(FLASH1G,address[0]);
00DE8:  MOVFF  55,66
00DEC:  MOVLW  08
00DEE:  MOVWF  x67
00DF0:  MOVLW  01
00DF2:  MOVWF  x68
00DF4:  CALL   0462
....................       spi_xfer(FLASH1G,address[1]);
00DF8:  MOVFF  56,66
00DFC:  MOVLW  08
00DFE:  MOVWF  x67
00E00:  MOVLW  01
00E02:  MOVWF  x68
00E04:  CALL   0462
....................       spi_xfer(FLASH1G,address[2]);
00E08:  MOVFF  57,66
00E0C:  MOVLW  08
00E0E:  MOVWF  x67
00E10:  MOVLW  01
00E12:  MOVWF  x68
00E14:  CALL   0462
....................       spi_xfer(FLASH1G,address[3]);
00E18:  MOVFF  58,66
00E1C:  MOVLW  08
00E1E:  MOVWF  x67
00E20:  MOVLW  01
00E22:  MOVWF  x68
00E24:  CALL   0462
....................       for(int8 i = 0;i < amount;i++) 
00E28:  CLRF   5A
00E2A:  MOVF   52,W
00E2C:  SUBWF  5A,W
00E2E:  BC    0E50
....................          spi_xfer(FLASH1G,write_data[i]);
00E30:  MOVF   5A,W
00E32:  ADDWF  53,W
00E34:  MOVWF  FE9
00E36:  MOVLW  00
00E38:  ADDWFC 54,W
00E3A:  MOVWF  FEA
00E3C:  MOVFF  FEF,66
00E40:  MOVLW  08
00E42:  MOVWF  x67
00E44:  MOVLW  01
00E46:  MOVWF  x68
00E48:  CALL   0462
00E4C:  INCF   5A,F
00E4E:  BRA    0E2A
....................       ////////////////////////////////////////////////////////////////
....................       output_high(FLASH1G_CS);          //take CS PIN higher back
00E50:  BCF    F93.3
00E52:  BSF    F8A.3
....................       
....................       while((status_register_flash1g() & 0x01) == 1)                                          //masking status bit
00E54:  CALL   05A6
00E58:  MOVF   01,W
00E5A:  ANDLW  01
00E5C:  SUBLW  01
00E5E:  BNZ   0E94
....................       {
....................          if(timeout_counter > 10)
00E60:  MOVF   59,W
00E62:  SUBLW  0A
00E64:  BC    0E70
....................             delay_ms(200);
00E66:  MOVLW  C8
00E68:  MOVWF  5B
00E6A:  CALL   05EA
00E6E:  BRA    0E78
....................          else
....................             delay_ms(10);   
00E70:  MOVLW  0A
00E72:  MOVWF  5B
00E74:  CALL   05EA
....................          
....................          if(timeout_counter > 100)
00E78:  MOVF   59,W
00E7A:  SUBLW  64
00E7C:  BC    0E90
....................          {
....................             #ifdef DEBUG
....................                fprintf(DEBUG_PORT,"flash timeout");
00E7E:  MOVLW  3C
00E80:  MOVWF  FF6
00E82:  MOVLW  01
00E84:  MOVWF  FF7
00E86:  MOVLW  00
00E88:  MOVWF  FF8
00E8A:  CALL   0430
....................             #endif
....................             break;
00E8E:  BRA    0E94
....................          }  
....................          timeout_counter++;
00E90:  INCF   59,F
00E92:  BRA    0E54
....................       }
....................       return;
00E94:  GOTO   1482 (RETURN)
....................    }
.................... #endif
.................... 
.................... #ifdef USE_FLASH128M
....................    int8 status_register_flash128m()
....................    {
....................       unsigned int8 status_reg;
....................       output_low(FLASH128M_CS);                                              //lower the CS PIN
....................       spi_xfer(FLASH128M,READ_STATUS_REGISTER);                              //READ STATUS REGISTER COMAND (0x05)
....................       status_reg = spi_xfer(FLASH128M);
....................       output_high(FLASH128M_CS);                                             //take CS PIN higher back
....................       #ifdef DEBUG
....................          if((status_reg & 0x01) == true)                                          //masking status bit
....................             fprintf(DEBUG_PORT,"128Mbit flash busy\n\r");
....................       #endif
....................       return status_reg;
....................    }
....................    
....................    int8 read_id_flash128m()//->success:True,fail:false
....................    {
....................       int8 chip_id[21];
....................       output_low(FLASH128M_CS);
....................       for (int8 i = 0;i <= 20;i++)
....................       {
....................          if (i == 0)
....................          {
....................             chip_id[i] = spi_xfer(FLASH128M,READ_ID);
....................             #ifdef DEBUG
....................                fprintf(DEBUG_PORT,"Read ID:");
....................             #endif
....................          }
....................          else
....................          {
....................             chip_id[i] = spi_xfer(FLASH128M,0x00);
....................             #ifdef DEBUG
....................                fprintf(DEBUG_PORT,"%x ",chip_id[i]);  
....................             #endif
....................          }
....................       }
....................       output_high(FLASH128M_CS);
....................       #ifdef DEBUG
....................          fprintf(DEBUG_PORT,"\r\n");
....................       #endif
....................       //chip id check
....................       if(chip_id[1] == 0x20)
....................       {
....................          #ifdef DEBUG
....................             fprintf(DEBUG_PORT,"flash connect OK\r\n");
....................          #endif
....................          return true;
....................       }
....................       else
....................       {
....................          #ifdef DEBUG
....................             fprintf(DEBUG_PORT,"flash not connect\r\n");
....................          #endif
....................          return false;
....................       }
....................    }
....................    
....................    void sector_erase_flash128m(unsigned int32 sector_address)
....................    {
....................       unsigned int8 address[3];
....................       unsigned int8 timeout_counter = 0;
....................       
....................       address[0]  = (unsigned int8)((sector_address>>16) & 0xff);   // 0x 00 _ _ 00 00
....................       address[1]  = (unsigned int8)((sector_address>>8) & 0xff);    // 0x 00 00 _ _ 00
....................       address[2]  = (unsigned int8)((sector_address) & 0xff);       // 0x 00 00 00 _ _
....................       
....................       //Write enable sequence
....................       output_low(FLASH128M_CS);
....................       spi_xfer(FLASH128M,WRITE_ENABLE);
....................       output_high(FLASH128M_CS);
....................       //Write enabled
....................       
....................       delay_us(2);
....................       
....................       output_low(FLASH128M_CS);
....................       ///////////////////////////////////////////////////////////////////
....................       spi_xfer(FLASH128M,SECTOR_ERASE); //SECTOR ERASE COMAND   (0xDC)
....................       
....................       spi_xfer(FLASH128M,address[0]);   
....................       spi_xfer(FLASH128M,address[1]);    
....................       spi_xfer(FLASH128M,address[2]);    
....................       //////////////////////////////////////////////////////////////////
....................       
....................       output_high(FLASH128M_CS);            //take CS PIN higher back
....................       
....................       while((status_register_flash128m() & 0x01) == 1)                                          //masking status bit
....................       {
....................          if(timeout_counter > 10)
....................             delay_ms(200);
....................          else
....................             delay_ms(10);   
....................          
....................          if(timeout_counter > 100)
....................          {
....................             #ifdef DEBUG
....................                fprintf(DEBUG_PORT,"flash timeout");
....................             #endif
....................             break;
....................          }  
....................          timeout_counter++;
....................       }
....................       return;
....................    }
....................    
....................    void subsector_32kByte_erase_flash128m(unsigned int32 subsector_address)
....................    {
....................       unsigned int8 address[3];
....................       unsigned int8 timeout_counter = 0;
....................       
....................       address[0]  = (unsigned int8)((subsector_address>>16) & 0xff);   // 0x 00 _ _ 00 00
....................       address[1]  = (unsigned int8)((subsector_address>>8) & 0xff);    // 0x 00 00 _ _ 00
....................       address[2]  = (unsigned int8)((subsector_address) & 0xff);       // 0x 00 00 00 _ _
....................       
....................       //Write enable sequence
....................       output_low(FLASH128M_CS);
....................       spi_xfer(FLASH128M,WRITE_ENABLE);
....................       output_high(FLASH128M_CS);
....................       //Write enabled
....................       
....................       output_low(FLASH128M_CS);
....................       ///////////////////////////////////////////////////////////////////
....................       spi_xfer(FLASH128M,SUBSECTOR_32KB_ERASE_4BYTE);
....................       
....................       spi_xfer(FLASH128M,address[0]);   
....................       spi_xfer(FLASH128M,address[1]);    
....................       spi_xfer(FLASH128M,address[2]);    
....................       //////////////////////////////////////////////////////////////////
....................       
....................       output_high(FLASH128M_CS);            //take CS PIN higher back
....................       
....................       while((status_register_flash128m() & 0x01) == 1)                                          //masking status bit
....................       {
....................          if(timeout_counter > 10)
....................             delay_ms(200);
....................          else
....................             delay_ms(10);   
....................          
....................          if(timeout_counter > 100)
....................          {
....................             #ifdef DEBUG
....................                fprintf(DEBUG_PORT,"flash timeout");
....................             #endif
....................             break;
....................          }  
....................          timeout_counter++;
....................       }
....................       
....................    }
....................       
....................    void subsector_4kByte_erase_flash128m(unsigned int32 subsector_address)
....................    {
....................       unsigned int8 address[3];
....................       unsigned int8 timeout_counter = 0;
....................       
....................       address[0]  = (unsigned int8)((subsector_address>>16) & 0xff);   // 0x 00 _ _ 00 00
....................       address[1]  = (unsigned int8)((subsector_address>>8) & 0xff);    // 0x 00 00 _ _ 00
....................       address[2]  = (unsigned int8)((subsector_address) & 0xff);       // 0x 00 00 00 _ _
....................       
....................       //Write enable sequence
....................       output_low(FLASH128M_CS);
....................       //delay_ms(2);
....................       spi_xfer(FLASH128M,WRITE_ENABLE);
....................       output_high(FLASH128M_CS);
....................       //Write enabled
....................       
....................       delay_us(2);
....................       
....................       output_low(FLASH128M_CS);
....................       ///////////////////////////////////////////////////////////////////
....................       spi_xfer(FLASH128M,SUBSECTOR_4KB_ERASE_4BYTE);
....................       
....................       spi_xfer(FLASH128M,address[0]);   
....................       spi_xfer(FLASH128M,address[1]);    
....................       spi_xfer(FLASH128M,address[2]);    
....................       //////////////////////////////////////////////////////////////////
....................       
....................       output_high(FLASH128M_CS);            //take CS PIN higher back
....................       
....................       while((status_register_flash128m() & 0x01) == 1)                                          //masking status bit
....................       {
....................          if(timeout_counter > 10)
....................             delay_ms(200);
....................          else
....................             delay_ms(10);   
....................          
....................          if(timeout_counter > 100)
....................          {
....................             #ifdef DEBUG
....................                fprintf(DEBUG_PORT,"flash timeout");
....................             #endif
....................             break;
....................          }  
....................          timeout_counter++;
....................       }
....................    }
....................       
....................    int8 read_data_byte_flash128m(unsigned int32 read_address)
....................    {
....................       int8 read_data;
....................       unsigned int8 address[3];
....................       
....................       address[0]  = (unsigned int8)((read_address>>16) & 0xff);   // 0x 00 _ _ 00 00
....................       address[1]  = (unsigned int8)((read_address>>8) & 0xff);    // 0x 00 00 _ _ 00
....................       address[2]  = (unsigned int8)((read_address) & 0xff);       // 0x 00 00 00 _ _
....................    
....................       output_low(FLASH128M_CS);
....................       ///////////////////////////////////////////////////////////////////
....................       spi_xfer(FLASH128M,READ);
....................       
....................       spi_xfer(FLASH128M,address[0]);   
....................       spi_xfer(FLASH128M,address[1]);    
....................       spi_xfer(FLASH128M,address[2]);    
....................       read_data = spi_xfer(FLASH128M);
....................       //////////////////////////////////////////////////////////////////
....................       
....................       delay_us(2);
....................       output_high(FLASH128M_CS);            //take CS PIN higher back
....................    
....................       return read_data;
....................    }
....................       
....................    void read_data_bytes_flash128m(unsigned int32 read_address,int8 amount,int8 *read_data)
....................    {
....................       unsigned int8 address[3];
....................       
....................       address[0]  = (unsigned int8)((read_address>>16) & 0xff);   // 0x 00 _ _ 00 00
....................       address[1]  = (unsigned int8)((read_address>>8) & 0xff);    // 0x 00 00 _ _ 00
....................       address[2]  = (unsigned int8)((read_address) & 0xff);       // 0x 00 00 00 _ _
....................    
....................       output_low(FLASH128M_CS);
....................       ///////////////////////////////////////////////////////////////////
....................       spi_xfer(FLASH128M,READ);
....................       
....................       spi_xfer(FLASH128M,address[0]);   
....................       spi_xfer(FLASH128M,address[1]);    
....................       spi_xfer(FLASH128M,address[2]);    
....................       for(int8 i = 0;i < amount;i++)
....................          read_data[i] = spi_xfer(FLASH128M);
....................       //////////////////////////////////////////////////////////////////
....................       
....................       delay_us(2);
....................       output_high(FLASH128M_CS);            //take CS PIN higher back
....................    
....................       return;
....................    }
....................    
....................    void write_data_byte(unsigned int32 write_address,int8 write_data)
....................    {
....................       unsigned int8 address[3];
....................       unsigned int8 timeout_counter = 0;
....................       //Byte extraction
....................       address[0]  = (unsigned int8)((write_address>>16) & 0xff);                     // 0x 00 _ _ 00 00
....................       address[1]  = (unsigned int8)((write_address>>8) & 0xff);                      // 0x 00 00 _ _ 00
....................       address[2]  = (unsigned int8)((write_address) & 0xff);                         // 0x 00 00 00 _ _
....................       
....................       //Write enable sequence
....................       output_low(FLASH128M_CS);
....................       spi_xfer(FLASH128M,WRITE_ENABLE);
....................       output_high(FLASH128M_CS);
....................       //Write enabled
....................       
....................       output_low(FLASH128M_CS);
....................       ////////////////////////////////////////////////////////////////
....................       spi_xfer(FLASH128M,PAGE_PROGRAM_4BYTE);                                               //PAGE WRITE COMAND  (0x12)
....................       spi_xfer(FLASH128M,address[0]);
....................       spi_xfer(FLASH128M,address[1]);
....................       spi_xfer(FLASH128M,address[2]);
....................       spi_xfer(FLASH128M,address[3]);
....................       ////////////////////////////////////////////////////////////////
....................       
....................       output_high(FLASH128M_CS);          //take CS PIN higher back
....................       
....................       while((status_register_flash128m() & 0x01) == 1)                                          //masking status bit
....................       {
....................          if(timeout_counter > 10)
....................             delay_ms(200);
....................          else
....................             delay_ms(10);   
....................          
....................          if(timeout_counter > 100)
....................          {
....................             #ifdef DEBUG
....................                fprintf(DEBUG_PORT,"flash timeout");
....................             #endif
....................             break;
....................          }  
....................          timeout_counter++;
....................       }
....................       //delay_us(10);  
....................       
....................       return;
....................    }
....................    
....................    void write_data_bytes(unsigned int32 write_address,int8 write_data)
....................    {
....................       unsigned int8 address[3];
....................       unsigned int8 timeout_counter = 0;
....................       //Byte extraction
....................       address[0]  = (unsigned int8)((write_address>>16) & 0xff);                     // 0x 00 _ _ 00 00
....................       address[1]  = (unsigned int8)((write_address>>8) & 0xff);                      // 0x 00 00 _ _ 00
....................       address[2]  = (unsigned int8)((write_address) & 0xff);                         // 0x 00 00 00 _ _
....................       
....................       //Write enable sequence
....................       output_low(FLASH128M_CS);
....................       spi_xfer(FLASH128M,WRITE_ENABLE);
....................       output_high(FLASH128M_CS);
....................       //Write enabled
....................       
....................       output_low(FLASH128M_CS);
....................       ////////////////////////////////////////////////////////////////
....................       spi_xfer(FLASH128M,PAGE_PROGRAM_4BYTE);                                               //PAGE WRITE COMAND  (0x12)
....................       spi_xfer(FLASH128M,address[0]);
....................       spi_xfer(FLASH128M,address[1]);
....................       spi_xfer(FLASH128M,address[2]);
....................       spi_xfer(FLASH128M,write_data);
....................       ////////////////////////////////////////////////////////////////
....................       output_high(FLASH128M_CS);          //take CS PIN higher back
....................       
....................       while((status_register_flash128M() & 0x01) == 1)                                          //masking status bit
....................       {
....................          if(timeout_counter > 10)
....................             delay_ms(200);
....................          else
....................             delay_ms(10);   
....................          
....................          if(timeout_counter > 100)
....................          {
....................             #ifdef DEBUG
....................                fprintf(DEBUG_PORT,"flash timeout");
....................             #endif
....................             break;
....................          }  
....................          timeout_counter++;
....................       }
....................       return;
....................    }
.................... 
.................... #endif
.................... 
.................... 
.................... 
.................... #include <stdlib.h> // toupperńŁēŃü¦õĮ┐ńö©
.................... ///////////////////////////////////////////////////////////////////////////
.................... ////        (C) Copyright 1996,2007 Custom Computer Services           ////
.................... //// This source code may only be used by licensed users of the CCS C  ////
.................... //// compiler.  This source code may only be distributed to other      ////
.................... //// licensed users of the CCS C compiler.  No other use, reproduction ////
.................... //// or distribution is permitted without written permission.          ////
.................... //// Derivative programs created using this software in object code    ////
.................... //// form are not restricted in any way.                               ////
.................... ///////////////////////////////////////////////////////////////////////////
.................... 
.................... 
.................... #ifndef _STDLIB
.................... #define _STDLIB
.................... 
.................... //---------------------------------------------------------------------------
.................... // Definitions and types
.................... //---------------------------------------------------------------------------
.................... 
.................... #ifndef RAND_MAX
.................... #define RAND_MAX  32767    // The value of which is the maximum value
....................                            // ... returned by the rand function
.................... #endif
.................... 
.................... 
.................... #IF (sizeof(int16*)>1)
.................... #DEFINE LONG_POINTERS 1
.................... #ELSE 
.................... #DEFINE LONG_POINTERS 0
.................... #ENDIF
.................... 
.................... typedef struct {
....................    signed int quot;
....................    signed int rem;
.................... } div_t;
.................... 
.................... typedef struct {
....................    signed long quot;
....................    signed long rem;
.................... } ldiv_t;
.................... 
.................... #include <stddef.h>
.................... ///////////////////////////////////////////////////////////////////////////
.................... ////        (C) Copyright 1996,2003 Custom Computer Services           ////
.................... //// This source code may only be used by licensed users of the CCS C  ////
.................... //// compiler.  This source code may only be distributed to other      ////
.................... //// licensed users of the CCS C compiler.  No other use, reproduction ////
.................... //// or distribution is permitted without written permission.          ////
.................... //// Derivative programs created using this software in object code    ////
.................... //// form are not restricted in any way.                               ////
.................... ///////////////////////////////////////////////////////////////////////////
.................... 
.................... #ifndef _STDDEF
.................... 
.................... #define _STDDEF
.................... 
.................... #if sizeof(unsigned int8 *)==1
.................... #define ptrdiff_t unsigned int8
.................... #else
.................... #define ptrdiff_t unsigned int16
.................... #endif
.................... 
.................... #if defined(__PCB__) || defined(__PCM__)
.................... #define size_t unsigned int8
.................... #else
.................... #define size_t unsigned int16
.................... #endif
.................... #define wchar_t unsigned char
.................... #define NULL 0
.................... 
.................... #define offsetof(s,f) (offsetofbit(s,f)/8)
.................... 
.................... #endif
.................... 
.................... 
.................... //---------------------------------------------------------------------------
.................... // String conversion functions
.................... //---------------------------------------------------------------------------
.................... 
.................... /* Standard template: signed int  atoi(char * s)
....................  * converts the initial portion of the string s to a signed int
....................  * returns the converted value if any, 0 otherwise
....................  */
.................... signed int atoi(char *s);
.................... 
.................... /* Syntax: signed int32  atoi32(char * s)
....................    converts the initial portion of the string s to a signed int32
....................    returns the converted value if any, 0 otherwise*/
.................... #if (sizeof(long)==4)
....................  #define atoi32(s) atol(s)
.................... #else 
....................  signed int32 atoi32(char *s);
.................... #endif
.................... 
.................... #if defined(__PCD__)
.................... // The following functions only work on the 24 bit compiler
.................... // for the 30F, 33F, 24F and 24H parts
.................... /* Syntax: signed int48  atoi48(char * s)
....................    converts the initial portion of the string s to a signed int48
....................    returns the converted value if any, 0 otherwise*/
....................    
.................... signed int48 atoi48(char *s);
.................... 
.................... /* Syntax: signed int64  atoi64(char * s)
....................    converts the initial portion of the string s to a signed int64
....................    returns the converted value if any, 0 otherwise*/
.................... signed int64 atoi64(char *s);
.................... #endif
.................... 
.................... /* Syntax: char *  itoa(signed int32 num, int8 base, char * s)
....................    converts the signed int32 to a string and
....................    returns the converted value if any, 0 otherwise*/
.................... char * itoa(signed int32 num, unsigned int base, char * s);
.................... 
.................... /* Standard template: signed int16  atol(char * s)
....................  * converts the initial portion of the string s to a signed int16
....................  * returns the converted value if any, 0 otherwise
....................  */
.................... signed long atol(char *s);
.................... 
.................... /* Standard template: int16 strtoul(char * s,char *endptr,signed int base)
....................  * converts the initial portion of the string s, represented as an
....................  * integral value of radix base  to a signed long.
....................  * Returns the converted value if any, 0 otherwise
....................  * the final string is returned in the endptr, if endptr is not null
....................  */
.................... signed long strtol(char *s,char *endptr, signed int base);
.................... 
.................... /* Standard template: int16 strtoul(char * s,char *endptr,signed int base)
....................  * converts the initial portion of the string s, represented as an
....................  * integral value of radix base to a unsigned long.
....................  * returns the converted value if any, 0 otherwise
....................  * the final string is returned in the endptr, if endptr is not null
....................  */
.................... unsigned long strtoul(char *s,char *endptr, signed int base);
.................... 
.................... /* Standart template: float strtof(char * s,char *endptr)
....................                       float48 strtof48(char *s,char *endptr);
....................                       float64 strtod(char *s,char *endptr);
....................  * converts the initial portion of the string s to a float32, float48 or float64,
....................  * returns the converted value if any, 0 otherwise
....................  * the final string is returned in the endptr, if endptr is not null                   
.................... */
.................... float strtof(char *s,char **endptr);
.................... #if defined(__PCD__)
.................... float48 strtof48(char *s,char **endptr);
.................... float64 strtod(char *s,char **endptr);
.................... #else
.................... //provided for compatibility
.................... #define strtof48(s, e) strtof(s, e)
.................... #define strtod(s, e) strtof(s, e)
.................... #endif
.................... 
.................... /* Standard template: float32 atof(char * s)
....................  * converts the initial portion of the string s to a float.
....................  * returns the converted value if any, 0 otherwise
....................  */
.................... #define atof(s)   strtof(s, (char*)0)
.................... 
.................... #if defined(__PCD__)
.................... // The following functions only work on the 24 bit compiler
.................... // for the 30F, 33F, 24F and 24H parts
.................... 
.................... /* Standard template: float48 atof48(char * s)
....................  * converts the initial portion of the string s to a float.
....................  * returns the converted value if any, 0 otherwise
....................  */
.................... #define atof48(s) strtof48(s, 0)
.................... 
.................... /* Standard template: float64 atof64(char * s)
....................  * converts the initial portion of the string s to a float.
....................  * returns the converted value if any, 0 otherwise
....................  */
.................... #define atof64(s) strtod(s, 0)
.................... #endif
.................... 
.................... /* Standard template: float32 atoe(char * s)
....................  * converts the initial portion of the string s to a float.
....................  * returns the converted value if any, 0 otherwise
....................  * also handles E format numbers
....................  */
.................... #if !defined(__PCD__)
.................... float atoe(char * s);
.................... #endif
.................... 
.................... #if defined(__PCD__)
.................... float32 atoe(char * s);
.................... #endif
.................... 
.................... //---------------------------------------------------------------------------
.................... // Pseudo-random sequence generation functions
.................... //---------------------------------------------------------------------------
.................... 
.................... /* The rand function computes a sequence of pseudo-random integers in
....................  * the range 0 to RAND_MAX
....................  *
....................  * Parameters:
....................  *       (none)
....................  *
....................  * Returns:
....................  *       The pseudo-random integer
....................  */
.................... unsigned int16 rand(void);
.................... 
.................... /* The srand function uses the argument as a seed for a new sequence of
....................  * pseudo-random numbers to be returned by subsequent calls to rand.
....................  *
....................  * Parameters:
....................  *       [in] seed: The seed value to start from. You might need to pass
....................  *
....................  * Returns:
....................  *       (none)
....................  *
....................  * Remarks
....................  *          The srand function sets the starting point for generating
....................  *       a series of pseudorandom integers. To reinitialize the
....................  *       generator, use 1 as the seed argument. Any other value for
....................  *       seed sets the generator to a random starting point. rand
....................  *       retrieves the pseudorandom numbers that are generated.
....................  *       Calling rand before any call to srand generates the same
....................  *       sequence as calling srand with seed passed as 1.
....................  *          Usually, you need to pass a time here from outer source
....................  *       so that the numbers will be different every time you run.
....................  */
.................... void srand(unsigned int32 seed);
.................... 
.................... //---------------------------------------------------------------------------
.................... // Memory management functions
.................... //---------------------------------------------------------------------------
.................... 
.................... // Comming soon
.................... 
.................... //---------------------------------------------------------------------------
.................... // Communication with the environment
.................... //---------------------------------------------------------------------------
.................... 
.................... /* The function returns 0 always
....................  */
.................... signed int8 system(char *string);
.................... 
.................... //---------------------------------------------------------------------------
.................... // Searching and sorting utilities
.................... //---------------------------------------------------------------------------
.................... 
.................... /* Performs a binary search of a sorted array..
....................  *
....................  * Parameters:
....................  *       [in] key: Object to search for
....................  *       [in] base: Pointer to base of search data
....................  *       [in] num: Number of elements
....................  *       [in] width: Width of elements
....................  *       [in] compare: Function that compares two elements
....................  *
....................  * Returns:
....................  *       bsearch returns a pointer to an occurrence of key in the array pointed
....................  *       to by base. If key is not found, the function returns NULL. If the
....................  *       array is not in order or contains duplicate records with identical keys,
....................  *       the result is unpredictable.
....................  */
.................... //void *bsearch(const void *key, const void *base, size_t num, size_t width,
.................... //              int (*compare)(const void *, const void *));
.................... 
.................... /* Performs the shell-metzner sort (not the quick sort algorithm). The contents
....................  * of the array are sorted into ascending order according to a comparison
....................  * function pointed to by compar.
....................  *
....................  * Parameters:
....................  *       [in] base: Pointer to base of search data
....................  *       [in] num: Number of elements
....................  *       [in] width: Width of elements
....................  *       [in] compare: Function that compares two elements
....................  *
....................  * Returns:
....................  *       (none)
....................  */
.................... //void *qsort(const void *base, size_t num, size_t width,
.................... //              int (*compare)(const void *, const void *));
.................... 
.................... //---------------------------------------------------------------------------
.................... // Integer arithmetic functions
.................... //---------------------------------------------------------------------------
.................... 
.................... #define labs abs
.................... 
.................... div_t div(signed int numer, signed int denom);
.................... ldiv_t ldiv(signed long numer, signed long denom);
.................... 
.................... //---------------------------------------------------------------------------
.................... // Multibyte character functions
.................... //---------------------------------------------------------------------------
.................... 
.................... // Not supported
.................... 
.................... //---------------------------------------------------------------------------
.................... // Multibyte string functions
.................... //---------------------------------------------------------------------------
.................... 
.................... // Not supported
.................... 
.................... 
.................... //---------------------------------------------------------------------------
.................... // Internal implementation
.................... //---------------------------------------------------------------------------
.................... 
.................... #include <stddef.h>
.................... ///////////////////////////////////////////////////////////////////////////
.................... ////        (C) Copyright 1996,2003 Custom Computer Services           ////
.................... //// This source code may only be used by licensed users of the CCS C  ////
.................... //// compiler.  This source code may only be distributed to other      ////
.................... //// licensed users of the CCS C compiler.  No other use, reproduction ////
.................... //// or distribution is permitted without written permission.          ////
.................... //// Derivative programs created using this software in object code    ////
.................... //// form are not restricted in any way.                               ////
.................... ///////////////////////////////////////////////////////////////////////////
.................... 
.................... #ifndef _STDDEF
.................... 
.................... #define _STDDEF
.................... 
.................... #if sizeof(unsigned int8 *)==1
.................... #define ptrdiff_t unsigned int8
.................... #else
.................... #define ptrdiff_t unsigned int16
.................... #endif
.................... 
.................... #if defined(__PCB__) || defined(__PCM__)
.................... #define size_t unsigned int8
.................... #else
.................... #define size_t unsigned int16
.................... #endif
.................... #define wchar_t unsigned char
.................... #define NULL 0
.................... 
.................... #define offsetof(s,f) (offsetofbit(s,f)/8)
.................... 
.................... #endif
.................... 
.................... #include <string.h>
.................... ////////////////////////////////////////////////////////////////////////////
.................... ////        (C) Copyright 1996,2008 Custom Computer Services            ////
.................... //// This source code may only be used by licensed users of the CCS C   ////
.................... //// compiler.  This source code may only be distributed to other       ////
.................... //// licensed users of the CCS C compiler.  No other use, reproduction  ////
.................... //// or distribution is permitted without written permission.           ////
.................... //// Derivative programs created using this software in object code     ////
.................... //// form are not restricted in any way.                                ////
.................... ////////////////////////////////////////////////////////////////////////////
.................... 
.................... #ifndef _STRING
.................... #define _STRING
.................... #include <stddef.h>
.................... ///////////////////////////////////////////////////////////////////////////
.................... ////        (C) Copyright 1996,2003 Custom Computer Services           ////
.................... //// This source code may only be used by licensed users of the CCS C  ////
.................... //// compiler.  This source code may only be distributed to other      ////
.................... //// licensed users of the CCS C compiler.  No other use, reproduction ////
.................... //// or distribution is permitted without written permission.          ////
.................... //// Derivative programs created using this software in object code    ////
.................... //// form are not restricted in any way.                               ////
.................... ///////////////////////////////////////////////////////////////////////////
.................... 
.................... #ifndef _STDDEF
.................... 
.................... #define _STDDEF
.................... 
.................... #if sizeof(unsigned int8 *)==1
.................... #define ptrdiff_t unsigned int8
.................... #else
.................... #define ptrdiff_t unsigned int16
.................... #endif
.................... 
.................... #if defined(__PCB__) || defined(__PCM__)
.................... #define size_t unsigned int8
.................... #else
.................... #define size_t unsigned int16
.................... #endif
.................... #define wchar_t unsigned char
.................... #define NULL 0
.................... 
.................... #define offsetof(s,f) (offsetofbit(s,f)/8)
.................... 
.................... #endif
.................... 
.................... #include <ctype.h>
.................... ////////////////////////////////////////////////////////////////////////////
.................... ////        (C) Copyright 1996,2003 Custom Computer Services            ////
.................... //// This source code may only be used by licensed users of the CCS C   ////
.................... //// compiler.  This source code may only be distributed to other       ////
.................... //// licensed users of the CCS C compiler.  No other use, reproduction  ////
.................... //// or distribution is permitted without written permission.           ////
.................... //// Derivative programs created using this software in object code     ////
.................... //// form are not restricted in any way.                                ////
.................... ////////////////////////////////////////////////////////////////////////////
.................... 
.................... #ifndef _CTYPE
.................... #define _CTYPE
.................... 
.................... #define islower(x)  isamong(x,"abcdefghijklmnopqrstuvwxyz")
.................... #define isupper(x)  isamong(x,"ABCDEFGHIJKLMNOPQRSTUVWXYZ")
.................... #define isalnum(x)  isamong(x,"0123456789ABCDEFGHIJKLMNOPQRSTUVWXYZabcdefghijklmnopqrstuvwxyz")
.................... #define isalpha(x)  isamong(x,"ABCDEFGHIJKLMNOPQRSTUVWXYZabcdefghijklmnopqrstuvwxyz")
.................... #define isdigit(x)  isamong(x,"0123456789")
.................... #define isspace(x)  ((x)==' ')
.................... #define isxdigit(x) isamong(x,"0123456789ABCDEFabcdef")
.................... #define iscntrl(x)  ((x)<' ')
.................... #define isprint(x)  ((x)>=' ')
.................... #define isgraph(x)  ((x)>' ')
.................... #define ispunct(x)  (((x)>' ')&&!isalnum(x))
.................... 
.................... #endif
.................... 
.................... 
.................... 
.................... 
.................... 
.................... //////////////////////////////////////////////
.................... //// Uncomment the following define to    ////
.................... //// allow some functions to use a        ////
.................... //// quicker algorithm, but use more ROM  ////
.................... ////                                      ////
.................... //// #define FASTER_BUT_MORE_ROM          ////
.................... //////////////////////////////////////////////
.................... 
.................... 
.................... 
.................... /*Copying functions*/
.................... /* standard template:
....................    void *memmove(void *s1, void *s2, size_t n).
....................    Copies max of n characters safely (not following ending '\0')
....................    from s2 in s1; if s2 has less than n characters, appends 0 */
.................... 
.................... unsigned char *memmove(void *s1,void *s2,size_t n)
.................... {
....................    unsigned char *sc1;
....................    unsigned char *sc2;
....................    sc1=s1;
....................    sc2=s2;
....................    if(sc2<sc1 && sc1 <sc2 +n)
....................       for(sc1+=n,sc2+=n;0<n;--n)
....................          *--sc1=*--sc2;
....................    else
....................       for(;0<n;--n)
....................          *sc1++=*sc2++;
....................   return s1;
....................   }
.................... 
.................... /* Standard template: char *strcpy(char *s1, const char *s2)
....................    copies the string s2 including the null character to s1.
....................    This is a compiler built in to handle the different address
....................    spaces */
.................... 
.................... #define strcopy strcpy
.................... 
.................... /* standard template:
....................    char *strncpy(char *s1, const char *s2, size_t n).
....................    Copies max of n characters (not following ending '\0')
....................    from s2 in s1; if s2 has less than n characters, appends 0 */
.................... 
.................... char *strncpy(char *s1, char *s2, size_t n)
.................... {
....................   char *s;
.................... 
....................   for (s = s1; n > 0 && *s2 != '\0'; n--)
....................      *s++ = *s2++;
....................   for (; n > 0; n--)
....................      *s++ = '\0';
.................... 
....................   return(s1);
.................... }
.................... /***********************************************************/
.................... 
.................... /*concatenation functions*/
.................... /* standard template: char *strcat(char *s1, const char *s2)
.................... appends s2 to s1*/
.................... 
.................... char *strcat(char *s1, char *s2)
.................... {
....................    unsigned char *s;
.................... 
....................    for (s = s1; *s != '\0'; ++s);
....................    while(*s2 != '\0')
....................    {
....................       *s = *s2;
....................       ++s;
....................       ++s2;
....................    }
.................... 
....................    *s = '\0';
....................    return(s1);
.................... }
.................... /* standard template: char *strncat(char *s1, char *s2,size_t n)
.................... appends not more than n characters from s2 to s1*/
.................... 
.................... char *strncat(char *s1, char *s2, size_t n)
.................... {
....................    char *s;
.................... 
....................    for (s = s1; *s != '\0'; ++s);
....................    while(*s2 != '\0' && 0<n)
....................    {
....................       *s = *s2;
....................       ++s;
....................       ++s2;
....................       --n;
....................    }
.................... 
....................    *s = '\0';
....................    return(s1);
.................... }
.................... 
.................... /***********************************************************/
.................... 
.................... 
.................... /*comparison functions*/
.................... /* standard template: signed int memcmp(void *s1, void *s2).
....................    Compares s1 & s2; returns -1 if s1<s2, 0 if s1=s2, 1 if s1>s2 */
.................... 
.................... signed int memcmp(void * s1,void *s2,size_t n)
.................... {
.................... unsigned char *su1, *su2;
.................... for(su1=s1, su2=s2; 0<n; ++su1, ++su2, --n)
.................... {
....................    if(*su1!=*su2)
....................       return ((*su1<*su2)?-1:1);
.................... }
.................... return 0;
.................... }
.................... 
.................... /* standard template: int strcmp(const char *s1, const char *s2).
....................    Compares s1 & s2; returns -1 if s1<s2, 0 if s1=s2, 1 if s1>s2 */
.................... 
.................... signed int strcmp(char *s1, char *s2)
.................... {
....................    for (; *s1 == *s2; s1++, s2++)
....................       if (*s1 == '\0')
....................          return(0);
....................    return((*s1 < *s2) ? -1: 1);
.................... }
.................... /* standard template: int strcoll(const char *s1, const char *s2).
....................    Compares s1 & s2; returns -1 if s1<s2, 0 if s1=s2, 1 if s1>s2 */
.................... 
.................... signed int strcoll(char *s1, char *s2)
.................... {
....................    for (; *s1 == *s2; s1++, s2++)
....................       if (*s1 == '\0')
....................          return(0);
....................    return((*s1 < *s2) ? -1: 1);
.................... }
.................... 
.................... /* standard template:
....................    int strncmp(const char *s1, const char *s2, size_t n).
....................    Compares max of n characters (not following 0) from s1 to s2;
....................    returns same as strcmp */
.................... 
.................... signed int strncmp(char *s1, char *s2, size_t n)
.................... {
....................    for (; n > 0; s1++, s2++, n--)
....................       if (*s1 != *s2)
....................          return((*s1 <*s2) ? -1: 1);
....................       else if (*s1 == '\0')
....................          return(0);
....................    return(0);
.................... }
.................... /* standard template:
....................    int strxfrm(const char *s1, const char *s2, size_t n).
....................    transforms maximum of n characters from s2 and places them into s1, returns number of chars written ot s1.
....................    if s1 is NULL and n is 0, then it returns the length of s2.*/
.................... size_t strxfrm(char *s1, char *s2, size_t n)
.................... {
....................    char c;
....................    size_t n1;
....................    
....................    if (!s1 && !n)
....................       n = -1; //find length
.................... 
....................    n1 = 0;
....................    
....................    for (; n1 < n; n1++)
....................    {
....................       c = *s2++;
....................       if (!c)
....................          break;
....................       if (s1)
....................          *s1++ = c;
....................    }
.................... 
....................   return(n1);
.................... }
.................... 
.................... 
.................... 
.................... 
.................... 
.................... /***********************************************************/
.................... /*Search functions*/
.................... /* standard template: void *memchr(const char *s, int c).
....................    Finds first occurrence of c in n characters of s */
.................... 
.................... char *memchr(void *s,unsigned int8 c,size_t n)
.................... {
....................    char uc;
....................    char *su;
....................    uc=c;
....................    for(su=s;0<n;++su,--n)
....................       if(*su==uc)
....................       return su;
....................    return NULL;
.................... }
.................... 
.................... /* standard template: char *strchr(const char *s, int c).
....................    Finds first occurrence of c in s */
.................... 
.................... char *strchr(char *s, char c)
.................... {
....................    for (; *s != c; s++)
....................       if (*s == '\0')
....................          return(0);
....................    return(s);
.................... }
.................... /* standard template:
....................    size_t strcspn(const char *s1, const char *s2).
....................    Computes length of max initial segment of s1 that
....................    consists entirely of characters NOT from s2*/
.................... 
.................... size_t strcspn(char *s1, char *s2)
.................... {
....................    char *sc1, *sc2;
.................... 
....................    for (sc1 = s1; *sc1 != 0; sc1++)
....................       for (sc2 = s2; *sc2 != 0; sc2++)
....................          if (*sc1 == *sc2)
....................             return(sc1 - s1);
....................    return(sc1 - s1);
.................... }
.................... /* standard template:
....................    char *strpbrk(const char *s1, const char *s2).
....................    Locates first occurence of any character from s2 in s1;
....................    returns s1 if s2 is empty string */
.................... 
.................... char *strpbrk(char *s1, char *s2)
.................... {
....................    char *sc1, *sc2;
.................... 
....................    for (sc1 = s1; *sc1 != 0; sc1++)
....................       for (sc2 = s2; *sc2 != 0; sc2++)
....................          if (*sc1 == *sc2)
....................             return(sc1);
....................    return(0);
.................... }
.................... 
.................... 
.................... /* standard template: char *strrchr(const char *s, int c).
....................    Finds last occurrence of c in s */
.................... 
.................... char *strrchr(char *s, char c)
.................... {
....................    char *p;
.................... 
....................    for (p = 0; ; s++)
....................    {
....................       if (*s == c)
....................          p = s;
....................       if (*s == '\0')
....................          return(p);
....................    }
.................... }
.................... /* computes length of max initial segment of s1 consisting
....................    entirely of characters from s2 */
.................... 
.................... size_t strspn(char *s1, char *s2)
.................... {
....................    char *sc1, *sc2;
.................... 
....................    for (sc1 = s1; *sc1 != 0; sc1++)
....................       for (sc2 = s2; ; sc2++)
....................     if (*sc2 == '\0')
....................        return(sc1 - s1);
....................          else if (*sc1 == *sc2)
....................             break;
....................    return(sc1 - s1);
.................... }
.................... /* standard template:
....................    char *strstr(const char *s1, const char *s2);
....................    Locates first occurence of character sequence s2 in s1;
....................    returns 0 if s2 is empty string
.................... 
....................    Uncomment #define FASTER_BUT_MORE_ROM at the top of the
....................    file to use the faster algorithm */
.................... char *strstr(char *s1, char *s2)
.................... {
....................    char *s, *t;
.................... 
....................    #ifdef FASTER_BUT_MORE_ROM
....................    if (*s2 == '\0')
....................          return(s1);
....................    #endif
.................... 
....................    while (*s1)
....................    {
....................       for(s = s1, t = s2; *t && (*s == *t); ++s, ++t);
.................... 
....................       if (*t == '\0')
....................          return s1;
....................       ++s1;
....................       #ifdef FASTER_BUT_MORE_ROM
....................          while(*s1 != '\0' && *s1 != *s2)
....................             ++s1;
....................       #endif
....................    }
....................    return 0;
.................... }
.................... 
.................... /* standard template: size_t strlen(const char *s).
....................    Computes length of s1 (preceding terminating 0) */
.................... 
.................... size_t strlen(char *s)
.................... {
....................    char *sc;
.................... 
....................    for (sc = s; *sc != 0; sc++);
....................    return(sc - s);
.................... }
.................... 
.................... /* standard template: char *strtok(char *s1, const char *s2).
.................... 
....................    Finds next token in s1 delimited by a character from separator
....................    string s2 (which can be different from call to call).  First call
....................    starts at beginning of s1 searching for first character NOT
....................    contained in s2; returns 0 if none is found.
....................    If one is found, it is the start of first token (return value).
....................    Function then searches from there for a character contained in s2.
....................    If none is found, current token extends to end of s1, and subsequent
....................    searches for a token will return 0.  If one is found, it is
....................    overwritten by '\0', which terminates current token.  Function saves
....................    pointer to following character from which next search will start.
....................    Each subsequent call, with 0 as first argument, starts searching
....................    from saved pointer */
.................... 
.................... char *strtok(char *s1, char *s2)
.................... {
....................    char *beg, *end;
....................    static char *save;
.................... 
....................    beg = (s1)? s1: save;
....................    beg += strspn(beg, s2);
....................    if (*beg == '\0')
....................       return(0);
....................       
....................    end = strpbrk(beg, s2);
....................    if (end != '\0')
....................    {
....................       *end = '\0';
....................       end++;
....................       save = end;
....................    }
....................    else
....................       save = beg + strlen(beg);
....................    
....................    return(beg);
.................... }
.................... 
.................... /*****************************************************************/
.................... /*Miscellaneous functions*/
.................... /* standard template
.................... maps error number in errnum to an error message string
.................... Returns: Pointer to string
.................... */
.................... #ifdef _ERRNO
.................... char * strerror(unsigned int8 errnum)
.................... {
.................... static unsigned char s[13];
.................... switch( errnum)
.................... {
.................... case 0:
....................    strcpy(s,"no errors");
....................    return s;
.................... case EDOM :
....................    strcpy(s,"domain error");
....................    return s;
.................... case ERANGE:
....................    strcpy(s,"range error");
....................    return s;
.................... }
.................... }
.................... #ENDIF
.................... 
.................... /* standard template: size_t stricmp(const char *s1, const char *s2).
....................    Compares s1 to s2 ignoring case (upper vs. lower) */
.................... 
.................... signed int stricmp(char *s1, char *s2)
.................... {
....................  for(; *s1==*s2||(isalpha(*s1)&&isalpha(*s2)&&((char)*s1==(char)*s2+(char)32||(char)*s2==(char)*s1+(char)32));
....................     s1++, s2++)
....................     if (*s1 == '\0')
....................        return(0);
....................  return((*s1 < *s2) ? -1: 1);
.................... }
.................... 
.................... 
.................... /* standard template: char *strlwr(char *s).
....................    Replaces uppercase letters by lowercase;
....................    returns pointer to new string s */
.................... 
.................... char *strlwr(char *s)
.................... {
....................    char *p;
.................... 
....................    for (p = s; *p != '\0'; p++)
....................       if (*p >= 'A' && *p <='Z')
....................          *p += 'a' - 'A';
....................    return(s);
.................... }
.................... 
.................... /* standard template: char *strupr(char *s).
....................    Replaces lowercase letters by upercase;
....................    returns pointer to new string s */
.................... 
.................... char *strupr(char *s)
.................... {
....................    char *p;
.................... 
....................    for (p = s; *p != '\0'; p++)
....................       if (*p >= 'a' && *p <='z')
....................          *p -= 'a' - 'A';
....................    return(s);
.................... }
.................... 
.................... 
.................... /************************************************************/
.................... 
.................... 
.................... #endif
.................... 
.................... 
.................... div_t div(signed int numer, signed int denom)
.................... {
....................    div_t val;
....................    val.quot = numer / denom;
....................    val.rem = numer - (denom * val.quot);
....................    return (val);
.................... }
.................... 
.................... ldiv_t ldiv(signed long numer, signed long denom)
.................... {
....................    ldiv_t val;
.................... 
....................    val.quot = numer / denom;
....................    val.rem = numer - (denom * val.quot);
....................    return (val);
.................... }
.................... 
.................... #if defined(__PCD__)
.................... float32 atoe(char * s)
.................... {
....................    float32 pow10 = 1.0;
....................    float32 result = 0.0;
....................    unsigned int8 sign = 0;
....................    unsigned int8 expsign = 0;
....................    char c;
....................    unsigned int8 ptr = 0;
....................    unsigned int8 i;
....................    float32 exp = 1.0;
....................    unsigned int8 expcnt = 0;
.................... 
....................    c = s[ptr++];
.................... 
....................    if ((c>='0' && c<='9') || c=='+' || c=='-' || c=='.' || c=='E' || c=='e') {
....................       if(c == '-') {
....................          sign = 1;
....................          c = s[ptr++];
....................       }
....................       if(c == '+')
....................          c = s[ptr++];
.................... 
....................       while((c >= '0' && c <= '9')) {
....................          result = 10*result + c - '0';
....................          c = s[ptr++];
....................       }
.................... 
....................       if (c == '.') {
....................          c = s[ptr++];
....................          while((c >= '0' && c <= '9')) {
....................              pow10 = pow10*10;
....................              result += (c - '0')/pow10;
....................              c = s[ptr++];
....................          }
....................       }
.................... 
....................       // Handling the exponent
....................       if (c=='e' || c=='E') {
....................          c = s[ptr++];
.................... 
....................          if(c == '-') {
....................             expsign = 1;
....................             c = s[ptr++];
....................          }
....................          if(c == '+')
....................             c = s[ptr++];
.................... 
....................          while((c >= '0' && c <= '9')) {
....................             expcnt = 10*expcnt + c - '0';
....................             c = s[ptr++];
....................          }
.................... 
....................          for(i=0;i<expcnt;i++)
....................             exp*=10;
.................... 
....................          if(expsign==1)
....................             result/=exp;
....................          else
....................             result*=exp;
....................       }
....................    }
.................... 
....................    if (sign == 1)
....................       result = -1*result;
....................    return(result);
.................... }
.................... #endif
.................... 
.................... #if !defined(__PCD__)
.................... float atoe(char * s)
.................... {
....................    float pow10 = 1.0;
....................    float result = 0.0;
....................    unsigned int8 sign = 0;
....................    unsigned int8 expsign = 0;
....................    char c;
....................    unsigned int8 ptr = 0;
....................    unsigned int8 i;
....................    float exp = 1.0;
....................    unsigned int8 expcnt = 0;
.................... 
....................    c = s[ptr++];
.................... 
....................    if ((c>='0' && c<='9') || c=='+' || c=='-' || c=='.' || c=='E' || c=='e') {
....................       if(c == '-') {
....................          sign = 1;
....................          c = s[ptr++];
....................       }
....................       if(c == '+')
....................          c = s[ptr++];
.................... 
....................       while((c >= '0' && c <= '9')) {
....................          result = 10*result + c - '0';
....................          c = s[ptr++];
....................       }
.................... 
....................       if (c == '.') {
....................          c = s[ptr++];
....................          while((c >= '0' && c <= '9')) {
....................              pow10 = pow10*10;
....................              result += (c - '0')/pow10;
....................              c = s[ptr++];
....................          }
....................       }
.................... 
....................       // Handling the exponent
....................       if (c=='e' || c=='E') {
....................          c = s[ptr++];
.................... 
....................          if(c == '-') {
....................             expsign = 1;
....................             c = s[ptr++];
....................          }
....................          if(c == '+')
....................             c = s[ptr++];
.................... 
....................          while((c >= '0' && c <= '9')) {
....................             expcnt = 10*expcnt + c - '0';
....................             c = s[ptr++];
....................          }
.................... 
....................          for(i=0;i<expcnt;i++)
....................             exp*=10;
.................... 
....................          if(expsign==1)
....................             result/=exp;
....................          else
....................             result*=exp;
....................       }
....................    }
.................... 
....................    if (sign == 1)
....................       result = -1*result;
....................    return(result);
.................... }
.................... #endif
.................... 
.................... signed int atoi(char *s)
.................... {
....................    signed int result;
....................    unsigned int sign, base, index;
....................    char c;
.................... 
....................    index = 0;
....................    sign = 0;
....................    base = 10;
....................    result = 0;
.................... 
....................    if (!s)
....................       return 0;
....................    // Omit all preceeding alpha characters
....................    c = s[index++];
.................... 
....................    // increase index if either positive or negative sign is detected
....................    if (c == '-')
....................    {
....................       sign = 1;         // Set the sign to negative
....................       c = s[index++];
....................    }
....................    else if (c == '+')
....................    {
....................       c = s[index++];
....................    }
.................... 
....................    if (c >= '0' && c <= '9')
....................    {
.................... 
....................       // Check for hexa number
....................       if (c == '0' && (s[index] == 'x' || s[index] == 'X'))
....................       {
....................          base = 16;
....................          index++;
....................          c = s[index++];
....................       }
.................... 
....................       // The number is a decimal number
....................       if (base == 10)
....................       {
....................          while (c >= '0' && c <= '9')
....................          {
....................             result = 10*result + (c - '0');
....................             c = s[index++];
....................          }
....................       }
....................       else if (base == 16)    // The number is a hexa number
....................       {
....................          c = toupper(c);
....................          while ( (c >= '0' && c <= '9') || (c >= 'A' && c<='F'))
....................          {
....................             if (c >= '0' && c <= '9')
....................                result = (result << 4) + (c - '0');
....................             else
....................                result = (result << 4) + (c - 'A' + 10);
.................... 
....................             c = s[index++];
....................             c = toupper(c);
....................          }
....................       }
....................    }
.................... 
....................    if (sign == 1 && base == 10)
....................        result = -result;
.................... 
....................    return(result);
.................... }
.................... 
.................... signed long atol(char *s)
.................... {
....................    signed long result;
....................    unsigned int sign, base, index;
....................    char c;
.................... 
....................    index = 0;
....................    sign = 0;
....................    base = 10;
....................    result = 0;
.................... 
....................    if (!s)
....................       return 0;
....................    c = s[index++];
.................... 
....................    // increase index if either positive or negative sign is detected
....................    if (c == '-')
....................    {
....................       sign = 1;         // Set the sign to negative
....................       c = s[index++];
....................    }
....................    else if (c == '+')
....................    {
....................       c = s[index++];
....................    }
.................... 
....................    if (c >= '0' && c <= '9')
....................    {
....................       if (c == '0' && (s[index] == 'x' || s[index] == 'X'))
....................       {
....................          base = 16;
....................          index++;
....................          c = s[index++];
....................       }
.................... 
....................       // The number is a decimal number
....................       if (base == 10)
....................       {
....................          while (c >= '0' && c <= '9')
....................          {
....................             result = 10*result + (c - '0');
....................             c = s[index++];
....................          }
....................       }
....................       else if (base == 16)    // The number is a hexa number
....................       {
....................          c = toupper(c);
....................          while ( (c >= '0' && c <= '9') || (c >= 'A' && c <='F'))
....................          {
....................             if (c >= '0' && c <= '9')
....................                result = (result << 4) + (c - '0');
....................             else
....................                result = (result << 4) + (c - 'A' + 10);
.................... 
....................             c = s[index++];c = toupper(c);
....................          }
....................       }
....................    }
.................... 
....................    if (base == 10 && sign == 1)
....................       result = -result;
.................... 
....................    return(result);
.................... }
.................... 
.................... /* A fast routine to multiply by 10
....................  */
.................... signed int32 mult_with10(int32 num)
.................... {
....................    return ( (num << 1) + (num << 3) );
.................... }
.................... 
.................... #if sizeof(long)==2
.................... signed int32 atoi32(char *s)
.................... {
....................    signed int32 result;
....................    int8 sign, base, index;
....................    char c;
.................... 
....................    index = 0;
....................    sign = 0;
....................    base = 10;
....................    result = 0;
.................... 
....................    if (!s)
....................       return 0;
....................    c = s[index++];
.................... 
....................    // increase index if either positive or negative sign is detected
....................    if (c == '-')
....................    {
....................       sign = 1;         // Set the sign to negative
....................       c = s[index++];
....................    }
....................    else if (c == '+')
....................    {
....................       c = s[index++];
....................    }
.................... 
....................    if (c >= '0' && c <= '9')
....................    {
....................       if (c == '0' && (s[index] == 'x' || s[index] == 'X'))
....................       {
....................          base = 16;
....................          index++;
....................          c = s[index++];
....................       }
.................... 
....................       // The number is a decimal number
....................       if (base == 10)
....................       {
....................          while (c >= '0' && c <= '9') {
....................             result = (result << 1) + (result << 3);  // result *= 10;
....................             result += (c - '0');
....................             c = s[index++];
....................          }
....................       }
....................       else if (base == 16)    // The number is a hexa number
....................       {
....................          c = toupper(c);
....................          while ((c >= '0' && c <= '9') || (c >= 'A' && c <='F'))
....................          {
....................             if (c >= '0' && c <= '9')
....................                result = (result << 4) + (c - '0');
....................             else
....................                result = (result << 4) + (c - 'A' + 10);
.................... 
....................             c = s[index++];c = toupper(c);
....................          }
....................       }
....................    }
.................... 
....................    if (base == 10 && sign == 1)
....................       result = -result;
.................... 
....................    return(result);
.................... }
.................... #endif
.................... 
.................... #if defined(__PCD__)
.................... 
.................... signed int48 atoi48(char *s)
.................... {
....................    signed int48 result;
....................    int8 sign, base, index;
....................    char c;
.................... 
....................    index = 0;
....................    sign = 0;
....................    base = 10;
....................    result = 0;
.................... 
....................    if (!s)
....................       return 0;
....................    c = s[index++];
.................... 
....................    // increase index if either positive or negative sign is detected
....................    if (c == '-')
....................    {
....................       sign = 1;         // Set the sign to negative
....................       c = s[index++];
....................    }
....................    else if (c == '+')
....................    {
....................       c = s[index++];
....................    }
.................... 
....................    if (c >= '0' && c <= '9')
....................    {
....................       if (c == '0' && (s[index] == 'x' || s[index] == 'X'))
....................       {
....................          base = 16;
....................          index++;
....................          c = s[index++];
....................       }
.................... 
....................       // The number is a decimal number
....................       if (base == 10)
....................       {
....................          while (c >= '0' && c <= '9') {
....................             result = (result << 1) + (result << 3);  // result *= 10;
....................             result += (c - '0');
....................             c = s[index++];
....................          }
....................       }
....................       else if (base == 16)    // The number is a hexa number
....................       {
....................          c = toupper(c);
....................          while ((c >= '0' && c <= '9') || (c >= 'A' && c <='F'))
....................          {
....................             if (c >= '0' && c <= '9')
....................                result = (result << 4) + (c - '0');
....................             else
....................                result = (result << 4) + (c - 'A' + 10);
.................... 
....................             c = s[index++];c = toupper(c);
....................          }
....................       }
....................    }
.................... 
....................    if (base == 10 && sign == 1)
....................       result = -result;
.................... 
....................    return(result);
.................... }
.................... 
.................... signed int64 atoi64(char *s)
.................... {
....................    signed int64 result;
....................    int8 sign, base, index;
....................    char c;
.................... 
....................    index = 0;
....................    sign = 0;
....................    base = 10;
....................    result = 0;
.................... 
....................    if (!s)
....................       return 0;
....................    c = s[index++];
.................... 
....................    // increase index if either positive or negative sign is detected
....................    if (c == '-')
....................    {
....................       sign = 1;         // Set the sign to negative
....................       c = s[index++];
....................    }
....................    else if (c == '+')
....................    {
....................       c = s[index++];
....................    }
.................... 
....................    if (c >= '0' && c <= '9')
....................    {
....................       if (c == '0' && (s[index] == 'x' || s[index] == 'X'))
....................       {
....................          base = 16;
....................          index++;
....................          c = s[index++];
....................       }
.................... 
....................       // The number is a decimal number
....................       if (base == 10)
....................       {
....................          while (c >= '0' && c <= '9') {
....................             result = (result << 1) + (result << 3);  // result *= 10;
....................             result += (c - '0');
....................             c = s[index++];
....................          }
....................       }
....................       else if (base == 16)    // The number is a hexa number
....................       {
....................          c = toupper(c);
....................          while ((c >= '0' && c <= '9') || (c >= 'A' && c <='F'))
....................          {
....................             if (c >= '0' && c <= '9')
....................                result = (result << 4) + (c - '0');
....................             else
....................                result = (result << 4) + (c - 'A' + 10);
.................... 
....................             c = s[index++];c = toupper(c);
....................          }
....................       }
....................    }
.................... 
....................    if (base == 10 && sign == 1)
....................       result = -result;
.................... 
....................    return(result);
.................... }
.................... #endif
.................... 
.................... char * itoa(signed int32 num, unsigned int base, char * s)
.................... {
....................      unsigned int32 temp=1;
....................      unsigned int8 i,sign=0,cnt=0;
....................      char c;
.................... 
....................      if(num<0) {
....................          sign=1;        // Check for negative number
....................          num*=-1;
....................      }
.................... 
....................      while(temp>0) {
....................          temp=(num/base);
....................          s[cnt]=(num%base)+'0';    // Conversion
.................... 
....................          if(s[cnt]>0x39)
....................             s[cnt]+=0x7;
.................... 
....................          cnt++;
....................          num=temp;
....................      }
.................... 
....................      if(sign==1) {
....................          s[cnt]=0x2D;      // Negative sign
....................          cnt++;
....................      }
.................... 
....................      for(i = 0;i<(int8)(cnt/2);i++) {
.................... 
....................          c=s[i];
....................          s[i]=s[cnt-i-1];        // Reverse the number
....................          s[cnt-i-1]=c;
....................      }
....................      s[cnt]='\0';     // End the string
....................      return s;
.................... }
.................... 
.................... #if defined(__PCD__)
.................... 
.................... char * itoa(signed int48 num, unsigned int base, char * s)
.................... {
....................      unsigned int48 temp=1;
....................      unsigned int8 i,sign=0,cnt=0;
....................      char c;
.................... 
....................      if(num<0) {
....................          sign=1;        // Check for negative number
....................          num*=-1;
....................      }
.................... 
....................      while(temp>0) {
....................          temp=(num/base);
....................          s[cnt]=(num%base)+'0';    // Conversion
.................... 
....................          if(s[cnt]>0x39)
....................             s[cnt]+=0x7;
.................... 
....................          cnt++;
....................          num=temp;
....................      }
.................... 
....................      if(sign==1) {
....................          s[cnt]=0x2D;      // Negative sign
....................          cnt++;
....................      }
.................... 
....................      for(i = 0;i<(int8)(cnt/2);i++) {
.................... 
....................          c=s[i];
....................          s[i]=s[cnt-i-1];        // Reverse the number
....................          s[cnt-i-1]=c;
....................      }
....................      s[cnt]='\0';     // End the string
....................      return s;
.................... }
.................... 
.................... char * itoa(signed int64 num, unsigned int base, char * s)
.................... {
....................      unsigned int64 temp=1;
....................      unsigned int8 i,sign=0,cnt=0;
....................      char c;
....................      
....................      if(num<0) {
....................          sign=1;        // Check for negative number
....................          num*=-1;        
....................      }
.................... 
....................      while(temp>0) {
....................          temp=(num/base);
....................          s[cnt]=(num%base)+'0';    // Conversion
.................... 
....................          if(s[cnt]>0x39)
....................             s[cnt]+=0x7;
....................             
....................          cnt++;
....................          num=temp;
....................      }
.................... 
....................      if(sign==1) {
....................          s[cnt]=0x2D;      // Negative sign
....................          cnt++;
....................      }
.................... 
....................      for(i = 0;i<(int8)(cnt/2);i++) {
.................... 
....................          c=s[i];
....................          s[i]=s[cnt-i-1];        // Reverse the number
....................          s[cnt-i-1]=c;
....................      }
....................      s[cnt]='\0';     // End the string
....................      return s;
.................... }
.................... 
.................... #endif
.................... 
.................... float strtof(char *s, char **endptr)
.................... {
....................    float pow10 = 1.0;
....................    float result = 0.0;
....................    int1 skip = 1, sign = 0, point = 0;
....................    char c;
....................    unsigned int8 ptr = 0;
.................... 
....................    if (!s)
....................       return 0;
.................... 
....................    for(c=s[ptr++]; c!=0; c=s[ptr++])
....................    {
....................       if (skip && !isspace(c))
....................       {
....................          skip = 0;
....................          if (c == '+')
....................          {
....................             sign = 0;
....................             continue;
....................          }            
....................          else if (c == '-')
....................          {
....................             sign = 1;
....................             continue;
....................          }
....................       }
....................       if (!skip && (c == '.') && !point)
....................          point = 1;
....................       else if (!skip && isdigit(c))
....................       {
....................          c -= '0';
....................          if (point)
....................          {
....................             pow10 = pow10 * 10.0;
....................             result += (float)c / pow10;   
....................          }
....................          else
....................          {
....................             result = 10.0 * result + (float)c;
....................          }
....................       }
....................       else if (!skip)
....................          break;
....................    }
.................... 
....................    if (sign)
....................       result = -1*result;
....................       
....................    if(endptr)
....................    {
....................       if (ptr) {
....................          ptr--;
....................        #IF LONG_POINTERS 
....................          *((int16 *)endptr)= s+ptr; 
....................        #ELSE
....................          *((char *)endptr)=s+ptr;
....................        #ENDIF
....................       }
....................       else
....................       {
....................       #IF LONG_POINTERS
....................       *((int16 *)endptr)= s; 
....................       #ELSE
....................       *((char *)endptr)=s;
....................       #ENDIF
....................       }
....................    }
.................... 
....................    return(result);
.................... }
.................... 
.................... #if defined(__PCD__)
.................... float48 strtof48(char *s, char **endptr)
.................... {
....................    float48 pow10 = 1.0;
....................    float48 result = 0.0;
....................    int1 skip = 1, sign = 0, point = 0;
....................    char c;
....................    unsigned int8 ptr = 0;
.................... 
....................    if (!s)
....................       return 0;
.................... 
....................    for(c=s[ptr++]; c!=0; c=s[ptr++])
....................    {
....................       if (skip && !isspace(c))
....................       {
....................          skip = 0;
....................          if (c == '+')
....................          {
....................             sign = 0;
....................             continue;
....................          }            
....................          else if (c == '-')
....................          {
....................             sign = 1;
....................             continue;
....................          }
....................       }
....................       if (!skip && (c == '.') && !point)
....................          point = 1;
....................       else if (!skip && isdigit(c))
....................       {
....................          c -= '0';
....................          if (point)
....................          {
....................             pow10 = pow10 * 10.0;
....................             result += (float48)c / pow10;   
....................          }
....................          else
....................          {
....................             result = 10.0 * result + (float48)c;
....................          }
....................       }
....................       else if (!skip)
....................          break;
....................    }
.................... 
....................    if (sign)
....................       result = -1*result;
....................       
....................    if(endptr)
....................    {
....................       if (ptr) {
....................          ptr--;
....................        #IF LONG_POINTERS 
....................          *((int16 *)endptr)= s+ptr; 
....................        #ELSE
....................          *((char *)endptr)=s+ptr;
....................        #ENDIF
....................       }
....................       else
....................       {
....................       #IF LONG_POINTERS
....................       *((int16 *)endptr)= s; 
....................       #ELSE
....................       *((char *)endptr)=s;
....................       #ENDIF
....................       }
....................    }
.................... 
....................    return(result);
.................... }
.................... 
.................... float64 strtod(char *s, char **endptr)
.................... {
....................    float64 pow10 = 1.0;
....................    float64 result = 0.0;
....................    int1 skip = 1, sign = 0, point = 0;
....................    char c;
....................    unsigned int8 ptr = 0;
.................... 
....................    if (!s)
....................       return 0;
.................... 
....................    for(c=s[ptr++]; c!=0; c=s[ptr++])
....................    {
....................       if (skip && !isspace(c))
....................       {
....................          skip = 0;
....................          if (c == '+')
....................          {
....................             sign = 0;
....................             continue;
....................          }            
....................          else if (c == '-')
....................          {
....................             sign = 1;
....................             continue;
....................          }
....................       }
....................       if (!skip && (c == '.') && !point)
....................          point = 1;
....................       else if (!skip && isdigit(c))
....................       {
....................          c -= '0';
....................          if (point)
....................          {
....................             pow10 = pow10 * 10.0;
....................             result += (float64)c / pow10;   
....................          }
....................          else
....................          {
....................             result = 10.0 * result + (float64)c;
....................          }
....................       }
....................       else if (!skip)
....................          break;
....................    }
.................... 
....................    if (sign)
....................       result = -1*result;
....................       
....................    if(endptr)
....................    {
....................       if (ptr) {
....................          ptr--;
....................        #IF LONG_POINTERS 
....................          *((int16 *)endptr)= s+ptr; 
....................        #ELSE
....................          *((char *)endptr)=s+ptr;
....................        #ENDIF
....................       }
....................       else
....................       {
....................       #IF LONG_POINTERS
....................       *((int16 *)endptr)= s; 
....................       #ELSE
....................       *((char *)endptr)=s;
....................       #ENDIF
....................       }
....................    }
.................... 
....................    return(result);
.................... }
.................... #endif
.................... 
.................... #ifndef __PCB__
.................... unsigned long strtoul(char *s, char *endptr, signed int base)
.................... {
....................    char *sc,*s1,*sd;
....................    unsigned long x=0;
....................    char sign;
....................    char digits[]="0123456789abcdefghijklmnopqstuvwxyz";
....................    for(sc=s;isspace(*sc);++sc);
....................    sign=*sc=='-'||*sc=='+'?*sc++:'+';
....................    if(sign=='-' || base <0 || base ==1|| base >36) // invalid base
....................    goto StrtoulGO;
.................... 
....................    else if (base)
....................    {
....................       if(base==16 && *sc =='0'&&(sc[1]=='x' || sc[1]=='X'))
....................          sc+=2;
....................       if(base==8 && *sc =='0')
....................          sc+=1;
....................       if(base==2 && *sc =='0'&&sc[1]=='b')
....................          sc+=2;
.................... 
....................    }
....................    else if(*sc!='0') // base is 0, find base
....................       base=10;
....................    else if (sc[1]=='x' || sc[1]=='X')
....................       base =16,sc+=2;
....................    else if(sc[1]=='b')
....................       base=2,sc+=2;
....................    else
....................       base=8;
....................    for (s1=sc;*sc=='0';++sc);// skip leading zeroes
....................    sd=memchr(digits,tolower(*sc),base);
....................    for(; sd!=0; )
....................    {
....................       x=x*base+(int16)(sd-digits);
....................       ++sc;
....................       sd=memchr(digits,tolower(*sc),base);
....................    }
....................    if(s1==sc)
....................    {
....................    StrtoulGO:
....................       if (endptr)
....................       {
....................          #IF LONG_POINTERS
....................          *((int16 *)endptr)= s; 
....................          #ELSE
....................          *((char *)endptr)=s;
....................          #ENDIF
....................          }
....................    return 0;
....................    }
....................    if (endptr)
....................    {
....................          #IF LONG_POINTERS
....................          *((int16 *)endptr)= sc; 
....................          #ELSE
....................          *((char *)endptr)=sc; 
....................          #ENDIF
....................    }
....................    return x;
.................... }
.................... 
.................... 
.................... signed long strtol(char *s,char *endptr, signed int base)
.................... {
....................    char *sc,*s1,*sd;
....................    signed long x=0;
....................    char sign;
....................    char digits[]="0123456789abcdefghijklmnopqstuvwxyz";
....................    for(sc=s;isspace(*sc);++sc);
....................    sign=*sc=='-'||*sc=='+'?*sc++:'+';
....................    if (base <0 || base ==1|| base >36) // invalid base
....................    goto StrtolGO;
....................    else if (base)
....................    {
....................       if(base==16 && *sc =='0'&&(sc[1]=='x' || sc[1]=='X'))
....................          sc+=2;
....................       if(base==8 && *sc =='0')
....................          sc+=1;
....................       if(base==2 && *sc =='0'&&sc[1]=='b')
....................          sc+=2;
.................... 
....................    }
....................    else if(*sc!='0') // base is 0, find base
....................       base=10;
....................    else if (sc[1]=='x' || sc[1]=='X')
....................       base =16,sc+=2;
....................    else if(sc[1]=='b')
....................       base=2,sc+=2;
....................    else
....................       base=8;
....................    for (s1=sc;*sc=='0';++sc);// skip leading zeroes
.................... 
....................    sd=memchr(digits,tolower(*sc),base);
....................    for(;sd!=0;)
....................    {
....................       x=x*base+(int16)(sd-digits);
....................       ++sc;
....................       sd=memchr(digits,tolower(*sc),base);
....................    }
....................    if(s1==sc)
....................    {
....................    StrtolGO:
....................       if (endptr)
....................       {
....................          #IF LONG_POINTERS
....................          *((int16 *)endptr)= s; 
....................          #ELSE
....................          *((char *)endptr)=s;
....................          #ENDIF
....................       }
....................    return 0;
....................    }
....................    if(sign=='-')
....................       x  =-x;
....................    if (endptr)
....................    {
....................         #IF LONG_POINTERS
....................          *((int16 *)endptr)= sc; 
....................         #ELSE
....................         *((char *)endptr)=sc;
....................         #ENDIF
....................    }
....................    return x;
.................... }
.................... #endif
.................... 
.................... signed int8 system(char *string)
.................... {
....................    return 0;
.................... }
.................... 
.................... size_t mblen(char *s,size_t n)
.................... {
....................    return strlen(s);
.................... }
.................... 
.................... int8 mbtowc(wchar_t *pwc,char *s,size_t n)
.................... {
....................    *pwc=*s;
....................    return 1;
.................... }
.................... 
.................... int8 wctomb(char *s,wchar_t wchar)
.................... {
....................    *s=wchar;
....................    return 1;
.................... }
.................... 
.................... size_t mbstowcs(wchar_t *pwcs,char *s,size_t n)
.................... {
....................    strncpy((char *)pwcs,s,n);
....................    return strlen((char *)pwcs);
.................... }
.................... 
.................... size_t wcstombs(char *s,wchar_t *pwcs,size_t n)
.................... {
....................    strncpy(s,(char *)pwcs,n);
....................    return strlen(s);
.................... }
.................... 
.................... //---------------------------------------------------------------------------
.................... // The random number implementation
.................... //---------------------------------------------------------------------------
.................... 
.................... unsigned int32 _Randseed;
.................... 
.................... unsigned int16 rand(void)
.................... {
....................    _Randseed = _Randseed * 1103515245 + 12345;
....................    return ((unsigned int16)(_Randseed >> 16) % RAND_MAX);
.................... }
.................... 
.................... void srand(unsigned int32 seed)
.................... {
....................    _Randseed = seed;
.................... }
.................... 
.................... //---------------------------------------------------------------------------
.................... // Searching and sorting utilities implementation
.................... //---------------------------------------------------------------------------
.................... 
.................... #if !defined(__PCD__)
.................... typedef signed int8 (*_Cmpfun)(char * p1,char * p2); 
.................... #else 
.................... typedef signed int16 (*_Cmpfun)(char * p1,char * p2); 
.................... #endif
.................... 
.................... 
.................... 
.................... void qsort(char * qdata, unsigned int qitems, unsigned int qsize, _Cmpfun cmp) {
....................    unsigned int m,j,i,l;
....................    int1 done;
....................    unsigned int8 t[16];
.................... 
....................    m = qitems/2;
....................    while( m > 0 ) {
....................      for(j=0; j<(qitems-m); ++j) {
....................         i = j;
....................         do
....................         {
....................            done=1;
....................            l = i+m;
....................            if( (*cmp)(qdata+i*qsize, qdata+l*qsize) > 0 ) {
....................               memcpy(t, qdata+i*qsize, qsize);
....................               memcpy(qdata+i*qsize, qdata+l*qsize, qsize);
....................               memcpy(qdata+l*qsize, t, qsize);
....................               if(m <= i)
....................                 i -= m;
....................                 done = 0;
....................            }
....................         } while(!done);
....................      }
....................      m = m/2;
....................    }
.................... }
.................... 
.................... 
.................... char *bsearch(char *key, char *base, size_t num, size_t width,_Cmpfun cmp)
.................... {
....................    char *p, *q;
....................    size_t n;
....................    size_t pivot;
....................    signed int val;
.................... 
....................    p = base;
....................    n = num;
.................... 
....................    while (n > 0)
....................    {
....................       pivot = n >> 1;
....................       q = p + width * pivot;
.................... 
....................       val = (*cmp)(key, q);
.................... 
....................       if (val < 0)
....................          n = pivot;
....................       else if (val == 0)
....................          return ((char *)q);
....................       else {
....................          p = q + width;
....................          n -= pivot + 1;
....................       }
....................    }
.................... 
....................    return NULL;      // There's no match
.................... }
.................... 
.................... 
.................... #endif
.................... 
.................... 
.................... // --- Timer Global Variables ---
.................... // ńĄīķüÄŃā¤Ńā¬ń¦ÆµĢ░ŃéÆŃé½Ńé”Ńā│Ńāł (0 ’Į× 4,294,967,295 ms ŌēÆ ń┤ä49µŚź)
.................... unsigned int32 total_milliseconds = 0;
.................... int1 time_updated = 0;
.................... 
.................... // --- Timer Interrupt ---
.................... #INT_TIMER0
.................... void timer0_isr(void)
.................... {
....................    // 1msŃüöŃü©Ńü«Õē▓ŃéŖĶŠ╝Ńü┐Ķ©ŁÕ«Ü
....................    // 16MHz / 4(System) / 4(Prescaler) = 1MHz (1us/count)
....................    // 1ms = 1000us -> 1000 count
....................    // 65536 - 1000 = 64536
....................    set_timer0(64536);
*
0014A:  MOVLW  FC
0014C:  MOVWF  FD7
0014E:  MOVLW  18
00150:  MOVWF  FD6
00152:  NOP   
.................... 
....................    // Ńā¤Ńā¬ń¦ÆŃéÆŃéżŃā│Ńé»Ńā¬ŃāĪŃā│Ńāł
....................    total_milliseconds++;
00154:  MOVLW  01
00156:  ADDWF  23,F
00158:  BTFSC  FD8.0
0015A:  INCF   24,F
0015C:  BTFSC  FD8.2
0015E:  INCF   25,F
00160:  BTFSC  FD8.2
00162:  INCF   26,F
.................... 
....................    time_updated = 1;
00164:  BSF    27.0
.................... }
.................... 
.................... // ńŖČµģŗń«ĪńÉåńö©Ńü«Õ«ÜµĢ░
.................... #define STATE_IDLE    0
.................... #define STATE_LOGGING 1
.................... 
.................... // ŃāćŃā╝Ńé┐ŃāæŃé▒ŃāāŃāłŃéĄŃéżŃé║: Time(4byte) + ADC(2byte) + Padding(2byte) = 8ŃāÉŃéżŃāł
.................... // ŌĆ╗256(ŃāÜŃā╝ŃéĖŃéĄŃéżŃé║) ├Ę 8 = 32 Ńü¬Ńü«Ńü¦ŃĆüŃāÜŃā╝ŃéĖÕóāńĢīÕć”ńÉåŃü»õĖŹĶ”üŃü¦ŃüÖ
00166:  BCF    FF2.2
00168:  GOTO   0068
.................... #define PACKET_SIZE   8
.................... 
.................... void main()
*
00E98:  CLRF   FF8
00E9A:  BCF    FD0.7
00E9C:  BSF    07.7
00E9E:  MOVLB  E
00EA0:  MOVLW  55
00EA2:  MOVWF  F7E
00EA4:  MOVLW  AA
00EA6:  MOVWF  F7E
00EA8:  BCF    F66.6
00EAA:  MOVLW  F8
00EAC:  MOVWF  x2A
00EAE:  MOVLW  F5
00EB0:  MOVWF  x2B
00EB2:  MOVLW  F8
00EB4:  MOVWF  x2C
00EB6:  MOVLW  F9
00EB8:  MOVWF  x2D
00EBA:  MOVLW  20
00EBC:  MOVWF  x1D
00EBE:  MOVLW  30
00EC0:  MOVWF  x22
00EC2:  MOVLW  20
00EC4:  MOVWF  x24
00EC6:  MOVLW  01
00EC8:  MOVWF  x25
00ECA:  MOVLW  55
00ECC:  MOVWF  F7E
00ECE:  MOVLW  AA
00ED0:  MOVWF  F7E
00ED2:  BSF    F66.6
00ED4:  CLRF   F9B
00ED6:  CLRF   F64
00ED8:  CLRF   F65
00EDA:  CLRF   F66
00EDC:  MOVLW  02
00EDE:  MOVWF  FD3
00EE0:  BSF    F67.3
00EE2:  MOVLW  A0
00EE4:  MOVWF  FAF
00EE6:  MOVLW  01
00EE8:  MOVLB  F
00EEA:  MOVWF  x30
00EEC:  MOVLW  A6
00EEE:  MOVWF  FAC
00EF0:  MOVLW  90
00EF2:  MOVWF  FAB
00EF4:  BSF    x31.3
00EF6:  MOVLW  A0
00EF8:  MOVWF  x1F
00EFA:  MOVLW  01
00EFC:  MOVWF  x20
00EFE:  MOVLW  A6
00F00:  MOVWF  x32
00F02:  MOVLW  90
00F04:  MOVWF  x33
00F06:  BSF    x2D.3
00F08:  MOVLW  A0
00F0A:  MOVWF  x2B
00F0C:  MOVLW  01
00F0E:  MOVWF  x2C
00F10:  MOVLW  A6
00F12:  MOVWF  x2E
00F14:  MOVLW  90
00F16:  MOVWF  x2F
00F18:  MOVLB  E
00F1A:  BSF    xFD.3
00F1C:  MOVLW  A0
00F1E:  MOVWF  xFB
00F20:  MOVLW  01
00F22:  MOVWF  xFC
00F24:  MOVLW  A6
00F26:  MOVWF  xFE
00F28:  MOVLW  90
00F2A:  MOVWF  xFF
00F2C:  BSF    F93.5
00F2E:  BCF    F93.4
00F30:  BCF    F93.2
00F32:  BCF    F8A.2
00F34:  CLRF   1C
00F36:  CLRF   1B
00F38:  CLRF   26
00F3A:  CLRF   25
00F3C:  CLRF   24
00F3E:  CLRF   23
00F40:  BCF    27.0
00F42:  CLRF   xD9
00F44:  CLRF   xDA
00F46:  CLRF   xCE
00F48:  CLRF   xCF
00F4A:  CLRF   xD0
00F4C:  CLRF   xD1
00F4E:  CLRF   xD2
00F50:  CLRF   xD3
00F52:  CLRF   xD4
00F54:  CLRF   xD5
00F56:  CLRF   x45
00F58:  CLRF   x46
00F5A:  CLRF   x47
00F5C:  BCF    x8D.7
00F5E:  BCF    x8D.6
00F60:  BCF    x8D.5
00F62:  MOVLB  F
00F64:  CLRF   x53
00F66:  CLRF   x38
00F68:  CLRF   x37
00F6A:  CLRF   1D
00F6C:  CLRF   1E
00F6E:  CLRF   2D
00F70:  CLRF   2C
00F72:  CLRF   2B
00F74:  CLRF   2A
00F76:  CLRF   31
00F78:  CLRF   30
00F7A:  CLRF   2F
00F7C:  CLRF   2E
00F7E:  CLRF   32
.................... {
....................     // --- ÕżēµĢ░Õ«ŻĶ©Ć ---
....................     int16 adc_value;           // ADCµĖ¼Õ«ÜÕĆż
....................     int32 current_addr = 0;    // ńÅŠÕ£©Ńü«FlashµøĖŃüŹĶŠ╝Ńü┐/Ķ¬ŁŃü┐Õć║ŃüŚŃéóŃāēŃā¼Ńé╣
....................     int32 recorded_count = 0;  // Ķ©śķī▓ŃüŚŃü¤ŃāćŃā╝Ńé┐µĢ░’╝łŃéĄŃā│ŃāŚŃā½µĢ░’╝ē
....................     int8  state = STATE_IDLE;  // ńÅŠÕ£©Ńü«ńŖČµģŗ
....................     char  cmd;                 // ÕÅŚõ┐ĪŃé│Ńā×Ńā│Ńāē
....................     int8  flash_buf[PACKET_SIZE]; // Flashńö©ŃāÉŃāāŃāĢŃéĪ
.................... 
....................     // --- ÕłØµ£¤Õī¢Õć”ńÉå ---
....................     fprintf(PORT1, "\r\n=== System Booting ===\r\n");
00F80:  MOVLW  6C
00F82:  MOVWF  FF6
00F84:  MOVLW  01
00F86:  MOVWF  FF7
00F88:  MOVLW  00
00F8A:  MOVWF  FF8
00F8C:  MOVLB  0
00F8E:  CALL   0430
.................... 
....................     // 1. ADCĶ©ŁÕ«Ü (RA5/AN4)
....................     setup_adc_ports(sAN4 | VSS_VDD);
00F92:  MOVLB  E
00F94:  CLRF   x45
00F96:  CLRF   x46
00F98:  MOVLW  20
00F9A:  MOVWF  x47
00F9C:  BCF    x8D.7
00F9E:  BCF    x8D.6
00FA0:  BCF    x8D.5
....................     setup_adc(ADC_CLOCK_DIV_32 | ADC_TAD_MUL_16);
00FA2:  MOVLW  10
00FA4:  MOVWF  x8B
00FA6:  MOVLW  1F
00FA8:  MOVWF  x8A
00FAA:  MOVLW  70
00FAC:  MOVWF  FC0
00FAE:  MOVLW  84
00FB0:  MOVWF  FC1
.................... 
....................     // 2. TimerĶ©ŁÕ«Ü (1msÕē▓ŃéŖĶŠ╝Ńü┐Ńü½Õżēµø┤)
....................     fprintf(PORT1, "Initializing Timer (1ms)...\r\n");
00FB2:  MOVLW  88
00FB4:  MOVWF  FF6
00FB6:  MOVLW  01
00FB8:  MOVWF  FF7
00FBA:  MOVLW  00
00FBC:  MOVWF  FF8
00FBE:  MOVLB  0
00FC0:  CALL   0430
....................     // T0_DIV_4 Ńü½Õżēµø┤ (1usÕŹśõĮŹŃü¦Ńé½Ńé”Ńā│ŃāłŃüÖŃéŗŃü¤Ńéü)
....................     setup_timer_0(T0_INTERNAL | T0_DIV_4);
00FC4:  MOVLW  91
00FC6:  MOVWF  FD5
....................     set_timer0(64536);
00FC8:  MOVLW  FC
00FCA:  MOVWF  FD7
00FCC:  MOVLW  18
00FCE:  MOVWF  FD6
00FD0:  NOP   
....................     enable_interrupts(INT_TIMER0);
00FD2:  BSF    FF2.5
....................     enable_interrupts(GLOBAL);
00FD4:  MOVLW  C0
00FD6:  IORWF  FF2,F
.................... 
....................     // 3. FlashĶ©ŁÕ«Ü
....................     fprintf(PORT1, "Initializing Flash...\r\n");
00FD8:  MOVLW  A6
00FDA:  MOVWF  FF6
00FDC:  MOVLW  01
00FDE:  MOVWF  FF7
00FE0:  MOVLW  00
00FE2:  MOVWF  FF8
00FE4:  CALL   0430
....................     flash_setting();
00FE8:  GOTO   045A
.................... 
....................     if(read_id_flash1g())
00FEC:  GOTO   04DC
00FF0:  MOVF   01,F
00FF2:  BZ    1006
....................     {
....................         fprintf(PORT1, "Flash Connection OK.\r\n");
00FF4:  MOVLW  BE
00FF6:  MOVWF  FF6
00FF8:  MOVLW  01
00FFA:  MOVWF  FF7
00FFC:  MOVLW  00
00FFE:  MOVWF  FF8
01000:  CALL   0430
....................     }
01004:  BRA    1016
....................     else
....................     {
....................         fprintf(PORT1, "Flash Connection FAILED. Check wiring.\r\n");
01006:  MOVLW  D6
01008:  MOVWF  FF6
0100A:  MOVLW  01
0100C:  MOVWF  FF7
0100E:  MOVLW  00
01010:  MOVWF  FF8
01012:  CALL   0430
....................     }
.................... 
....................     // µōŹõĮ£Ķ¬¼µśÄ
....................     fprintf(PORT1, "\r\n=== Operation Menu ===\r\n");
01016:  MOVLW  00
01018:  MOVWF  FF6
0101A:  MOVLW  02
0101C:  MOVWF  FF7
0101E:  MOVLW  00
01020:  MOVWF  FF8
01022:  CALL   0430
....................     fprintf(PORT1, " [A] Start Logging (Erase & Record)\r\n");
01026:  MOVLW  1C
01028:  MOVWF  FF6
0102A:  MOVLW  02
0102C:  MOVWF  FF7
0102E:  MOVLW  00
01030:  MOVWF  FF8
01032:  CALL   0430
....................     fprintf(PORT1, " [S] Stop Logging\r\n");
01036:  MOVLW  42
01038:  MOVWF  FF6
0103A:  MOVLW  02
0103C:  MOVWF  FF7
0103E:  MOVLW  00
01040:  MOVWF  FF8
01042:  CALL   0430
....................     fprintf(PORT1, " [D] Display Recorded Data (CSV)\r\n");
01046:  MOVLW  56
01048:  MOVWF  FF6
0104A:  MOVLW  02
0104C:  MOVWF  FF7
0104E:  MOVLW  00
01050:  MOVWF  FF8
01052:  CALL   0430
....................     fprintf(PORT1, "======================\r\n\r\n");
01056:  MOVLW  7A
01058:  MOVWF  FF6
0105A:  MOVLW  02
0105C:  MOVWF  FF7
0105E:  MOVLW  00
01060:  MOVWF  FF8
01062:  CALL   0430
.................... 
....................     // --- ŃāĪŃéżŃā│Ńā½Ńā╝ŃāŚ ---
....................     while(TRUE)
....................     {
....................         // --- 1. ŃéŁŃā╝ÕģźÕŖøŃāüŃé¦ŃāāŃé» (ŃāÄŃā│Ńā¢ŃāŁŃāāŃéŁŃā│Ńé░) ---
....................         if(kbhit(PORT1))
01066:  BTFSS  F9E.5
01068:  BRA    1394
....................         {
....................             cmd = toupper(fgetc(PORT1));
0106A:  BTFSS  F9E.5
0106C:  BRA    106A
0106E:  MOVF   FAE,W
01070:  MOVWF  4E
01072:  SUBLW  60
01074:  BC    1082
01076:  MOVF   4E,W
01078:  SUBLW  7A
0107A:  BNC   1082
0107C:  MOVF   4E,W
0107E:  ANDLW  DF
01080:  BRA    1084
01082:  MOVF   4E,W
01084:  MOVWF  33
.................... 
....................             if(cmd == 'A')
01086:  MOVF   33,W
01088:  SUBLW  41
0108A:  BNZ   10E6
....................             {
....................                 // Ķ©śķī▓ķ¢ŗÕ¦ŗÕć”ńÉå
....................                 fprintf(PORT1, "\r\n[CMD] Start Logging...\r\n");
0108C:  MOVLW  96
0108E:  MOVWF  FF6
01090:  MOVLW  02
01092:  MOVWF  FF7
01094:  MOVLW  00
01096:  MOVWF  FF8
01098:  CALL   0430
.................... 
....................                 // Ńé╗Ńé»Ńé┐0µČłÕÄ╗
....................                 fprintf(PORT1, "Erasing Sector 0 (Please wait)...\r\n");
0109C:  MOVLW  B2
0109E:  MOVWF  FF6
010A0:  MOVLW  02
010A2:  MOVWF  FF7
010A4:  MOVLW  00
010A6:  MOVWF  FF8
010A8:  CALL   0430
....................                 sector_erase_flash1g(0x000000);
010AC:  CLRF   51
010AE:  CLRF   50
010B0:  CLRF   4F
010B2:  CLRF   4E
010B4:  GOTO   0612
.................... 
....................                 // ÕżēµĢ░Ńā¬Ńé╗ŃāāŃāł
....................                 current_addr = 0x000000;
010B8:  CLRF   2D
010BA:  CLRF   2C
010BC:  CLRF   2B
010BE:  CLRF   2A
....................                 recorded_count = 0;
010C0:  CLRF   31
010C2:  CLRF   30
010C4:  CLRF   2F
010C6:  CLRF   2E
....................                 total_milliseconds = 0; // µÖéķ¢ōŃā¬Ńé╗ŃāāŃāł
010C8:  CLRF   26
010CA:  CLRF   25
010CC:  CLRF   24
010CE:  CLRF   23
....................                 state = STATE_LOGGING;
010D0:  MOVLW  01
010D2:  MOVWF  32
.................... 
....................                 fprintf(PORT1, "Recording Started!\r\n");
010D4:  MOVLW  D6
010D6:  MOVWF  FF6
010D8:  MOVLW  02
010DA:  MOVWF  FF7
010DC:  MOVLW  00
010DE:  MOVWF  FF8
010E0:  CALL   0430
....................             }
010E4:  BRA    1394
....................             else if(cmd == 'S')
010E6:  MOVF   33,W
010E8:  SUBLW  53
010EA:  BNZ   1152
....................             {
....................                 // Õü£µŁóÕć”ńÉå
....................                 if(state == STATE_LOGGING)
010EC:  DECFSZ 32,W
010EE:  BRA    1140
....................                 {
....................                     state = STATE_IDLE;
010F0:  CLRF   32
....................                     fprintf(PORT1, "\r\n[CMD] Logging Stopped.\r\n");
010F2:  MOVLW  EC
010F4:  MOVWF  FF6
010F6:  MOVLW  02
010F8:  MOVWF  FF7
010FA:  MOVLW  00
010FC:  MOVWF  FF8
010FE:  CALL   0430
....................                     fprintf(PORT1, "Total Samples: %lu\r\n", recorded_count);
01102:  MOVLW  08
01104:  MOVWF  FF6
01106:  MOVLW  03
01108:  MOVWF  FF7
0110A:  MOVLW  00
0110C:  MOVWF  FF8
0110E:  MOVLW  0F
01110:  MOVWF  4E
01112:  CALL   06C4
01116:  MOVLW  41
01118:  MOVWF  FE9
0111A:  MOVFF  31,51
0111E:  MOVFF  30,50
01122:  MOVFF  2F,4F
01126:  MOVFF  2E,4E
0112A:  CALL   077A
0112E:  MOVLW  0D
01130:  BTFSS  F9E.4
01132:  BRA    1130
01134:  MOVWF  FAD
01136:  MOVLW  0A
01138:  BTFSS  F9E.4
0113A:  BRA    1138
0113C:  MOVWF  FAD
....................                 }
0113E:  BRA    1150
....................                 else
....................                 {
....................                     fprintf(PORT1, "\r\n[INFO] Not recording.\r\n");
01140:  MOVLW  1E
01142:  MOVWF  FF6
01144:  MOVLW  03
01146:  MOVWF  FF7
01148:  MOVLW  00
0114A:  MOVWF  FF8
0114C:  CALL   0430
....................                 }
....................             }
01150:  BRA    1394
....................             else if(cmd == 'D')
01152:  MOVF   33,W
01154:  SUBLW  44
01156:  BTFSS  FD8.2
01158:  BRA    1394
....................             {
....................                 // ÕåŹńö¤Õć”ńÉå
....................                 if(state == STATE_LOGGING)
0115A:  DECFSZ 32,W
0115C:  BRA    1170
....................                 {
....................                     fprintf(PORT1, "\r\n[WARN] Please Stop (S) first.\r\n");
0115E:  MOVLW  38
01160:  MOVWF  FF6
01162:  MOVLW  03
01164:  MOVWF  FF7
01166:  MOVLW  00
01168:  MOVWF  FF8
0116A:  CALL   0430
....................                 }
0116E:  BRA    1394
....................                 else if(recorded_count == 0)
01170:  MOVF   2E,F
01172:  BNZ   1192
01174:  MOVF   2F,F
01176:  BNZ   1192
01178:  MOVF   30,F
0117A:  BNZ   1192
0117C:  MOVF   31,F
0117E:  BNZ   1192
....................                 {
....................                     fprintf(PORT1, "\r\n[INFO] No data recorded.\r\n");
01180:  MOVLW  5A
01182:  MOVWF  FF6
01184:  MOVLW  03
01186:  MOVWF  FF7
01188:  MOVLW  00
0118A:  MOVWF  FF8
0118C:  CALL   0430
....................                 }
01190:  BRA    1394
....................                 else
....................                 {
....................                     fprintf(PORT1, "\r\n[CMD] Reading Flash Data...\r\n");
01192:  MOVLW  78
01194:  MOVWF  FF6
01196:  MOVLW  03
01198:  MOVWF  FF7
0119A:  MOVLW  00
0119C:  MOVWF  FF8
0119E:  CALL   0430
....................                     // Excelńö©CSVŃāśŃāāŃāĆŃā╝: TIME(ms), COUNT, HEX, DEC, VOLT(V)
....................                     // ķø╗Õ£¦Ńü«ÕłŚŃéÆĶ┐ĮÕŖĀŃüŚŃüŠŃüŚŃü¤
....................                     fprintf(PORT1, "TIME(ms), COUNT, DATA_HEX, DATA_DEC, VOLT(V)\r\n");
011A2:  MOVLW  98
011A4:  MOVWF  FF6
011A6:  MOVLW  03
011A8:  MOVWF  FF7
011AA:  MOVLW  00
011AC:  MOVWF  FF8
011AE:  CALL   0430
.................... 
....................                     int32 read_ptr = 0x000000;
....................                     int32 i;
....................                     float voltage; // ķø╗Õ£¦Ķ©łń«Śńö©ÕżēµĢ░
011B2:  CLRF   3F
011B4:  CLRF   3E
011B6:  CLRF   3D
011B8:  CLRF   3C
.................... 
....................                     for(i = 0; i < recorded_count; i++)
011BA:  CLRF   43
011BC:  CLRF   42
011BE:  CLRF   41
011C0:  CLRF   40
011C2:  MOVF   43,W
011C4:  SUBWF  31,W
011C6:  BTFSS  FD8.0
011C8:  BRA    1384
011CA:  BNZ   11E8
011CC:  MOVF   42,W
011CE:  SUBWF  30,W
011D0:  BTFSS  FD8.0
011D2:  BRA    1384
011D4:  BNZ   11E8
011D6:  MOVF   41,W
011D8:  SUBWF  2F,W
011DA:  BTFSS  FD8.0
011DC:  BRA    1384
011DE:  BNZ   11E8
011E0:  MOVF   2E,W
011E2:  SUBWF  40,W
011E4:  BTFSC  FD8.0
011E6:  BRA    1384
....................                     {
....................                         // 8ŃāÉŃéżŃāłĶ¬ŁŃü┐Õć║ŃüŚ
....................                         read_data_bytes_flash1g(read_ptr, PACKET_SIZE, flash_buf);
011E8:  MOVFF  3F,55
011EC:  MOVFF  3E,54
011F0:  MOVFF  3D,53
011F4:  MOVFF  3C,52
011F8:  MOVLW  08
011FA:  MOVWF  56
011FC:  CLRF   58
011FE:  MOVLW  34
01200:  MOVWF  57
01202:  GOTO   0820
.................... 
....................                         // ŃāćŃā╝Ńé┐Ńü«ÕŠ®Õģā
....................                         // [0]-[3]: Time(32bit), [4]-[5]: ADC(16bit)
....................                         int32 r_time = make32(flash_buf[0], flash_buf[1], flash_buf[2], flash_buf[3]);
....................                         int16 r_val  = make16(flash_buf[4], flash_buf[5]);
01206:  MOVFF  34,4B
0120A:  MOVFF  35,4A
0120E:  MOVFF  36,49
01212:  MOVFF  37,48
01216:  MOVFF  38,4D
0121A:  MOVFF  39,4C
.................... 
....................                         // ķø╗Õ£¦ÕżēµÅøĶ©łń«Ś
....................                         // ķø╗Õ£¦ = (ADCÕĆż * 3.3V) / 4095
....................                         voltage = (float)r_val * 3.3 / 4095.0;
0121E:  MOVFF  4D,4F
01222:  MOVFF  4C,4E
01226:  GOTO   08B6
0122A:  MOVFF  03,51
0122E:  MOVFF  02,50
01232:  MOVFF  01,4F
01236:  MOVFF  00,4E
0123A:  MOVFF  03,5E
0123E:  MOVFF  02,5D
01242:  MOVFF  01,5C
01246:  MOVFF  00,5B
0124A:  MOVLW  33
0124C:  MOVWF  x62
0124E:  MOVWF  x61
01250:  MOVLW  53
01252:  MOVWF  x60
01254:  MOVLW  80
01256:  MOVWF  5F
01258:  CALL   08EE
0125C:  MOVFF  03,51
01260:  MOVFF  02,50
01264:  MOVFF  01,4F
01268:  MOVFF  00,4E
0126C:  MOVFF  03,55
01270:  MOVFF  02,54
01274:  MOVFF  01,53
01278:  MOVFF  00,52
0127C:  CLRF   59
0127E:  MOVLW  F0
01280:  MOVWF  58
01282:  MOVLW  7F
01284:  MOVWF  57
01286:  MOVLW  8A
01288:  MOVWF  56
0128A:  GOTO   09E0
0128E:  MOVFF  03,47
01292:  MOVFF  02,46
01296:  MOVFF  01,45
0129A:  MOVFF  00,44
.................... 
....................                         // CSVÕĮóÕ╝ÅŃü¦ĶĪ©ńż║ (%.3f Ńü»Õ░ÅµĢ░ń¼¼3õĮŹŃüŠŃü¦ĶĪ©ńż║Ńü©ŃüäŃüåµäÅÕæ│Ńü¦ŃüÖ)
....................                         fprintf(PORT1, "%lu, %lu, %03lX, %lu, %.3f\r\n",
....................                                 r_time, i, r_val, r_val, voltage);
0129E:  MOVLW  41
012A0:  MOVWF  FE9
012A2:  MOVFF  4B,51
012A6:  MOVFF  4A,50
012AA:  MOVFF  49,4F
012AE:  MOVFF  48,4E
012B2:  CALL   077A
012B6:  MOVLW  2C
012B8:  BTFSS  F9E.4
012BA:  BRA    12B8
012BC:  MOVWF  FAD
012BE:  MOVLW  20
012C0:  BTFSS  F9E.4
012C2:  BRA    12C0
012C4:  MOVWF  FAD
012C6:  MOVLW  41
012C8:  MOVWF  FE9
012CA:  MOVFF  43,51
012CE:  MOVFF  42,50
012D2:  MOVFF  41,4F
012D6:  MOVFF  40,4E
012DA:  CALL   077A
012DE:  MOVLW  2C
012E0:  BTFSS  F9E.4
012E2:  BRA    12E0
012E4:  MOVWF  FAD
012E6:  MOVLW  20
012E8:  BTFSS  F9E.4
012EA:  BRA    12E8
012EC:  MOVWF  FAD
012EE:  MOVFF  4D,65
012F2:  MOVLW  B7
012F4:  MOVWF  x66
012F6:  CALL   049A
012FA:  MOVFF  4C,65
012FE:  MOVLW  37
01300:  MOVWF  x66
01302:  CALL   049A
01306:  MOVLW  2C
01308:  BTFSS  F9E.4
0130A:  BRA    1308
0130C:  MOVWF  FAD
0130E:  MOVLW  20
01310:  BTFSS  F9E.4
01312:  BRA    1310
01314:  MOVWF  FAD
01316:  MOVLW  10
01318:  MOVWF  FE9
0131A:  MOVFF  4D,4F
0131E:  MOVFF  4C,4E
01322:  RCALL  0B3C
01324:  MOVLW  2C
01326:  BTFSS  F9E.4
01328:  BRA    1326
0132A:  MOVWF  FAD
0132C:  MOVLW  20
0132E:  BTFSS  F9E.4
01330:  BRA    132E
01332:  MOVWF  FAD
01334:  MOVLW  89
01336:  MOVWF  FE9
01338:  MOVFF  47,51
0133C:  MOVFF  46,50
01340:  MOVFF  45,4F
01344:  MOVFF  44,4E
01348:  MOVLW  03
0134A:  MOVWF  52
0134C:  BRA    0C28
0134E:  MOVLW  0D
01350:  BTFSS  F9E.4
01352:  BRA    1350
01354:  MOVWF  FAD
01356:  MOVLW  0A
01358:  BTFSS  F9E.4
0135A:  BRA    1358
0135C:  MOVWF  FAD
.................... 
....................                         read_ptr += PACKET_SIZE;
0135E:  MOVLW  08
01360:  ADDWF  3C,F
01362:  MOVLW  00
01364:  ADDWFC 3D,F
01366:  ADDWFC 3E,F
01368:  ADDWFC 3F,F
....................                         delay_ms(1); // ŃāÉŃāāŃāĢŃéĪµ║óŃéīķś▓µŁó
0136A:  MOVLW  01
0136C:  MOVWF  5B
0136E:  CALL   05EA
01372:  MOVLW  01
01374:  ADDWF  40,F
01376:  BTFSC  FD8.0
01378:  INCF   41,F
0137A:  BTFSC  FD8.2
0137C:  INCF   42,F
0137E:  BTFSC  FD8.2
01380:  INCF   43,F
01382:  BRA    11C2
....................                     }
....................                     fprintf(PORT1, "End of Data.\r\n");
01384:  MOVLW  C8
01386:  MOVWF  FF6
01388:  MOVLW  03
0138A:  MOVWF  FF7
0138C:  MOVLW  00
0138E:  MOVWF  FF8
01390:  CALL   0430
....................                 }
....................             }
....................         }
.................... 
....................         // --- 2. ńŖČµģŗŃüöŃü©Ńü«Õć”ńÉå ---
....................         if(state == STATE_LOGGING)
01394:  DECFSZ 32,W
01396:  BRA    14D2
....................         {
....................             // ADCĶ¬ŁŃü┐ÕÅ¢ŃéŖ
....................             set_adc_channel(4); // AN4
01398:  MOVLW  04
0139A:  MOVLB  E
0139C:  MOVWF  x86
....................             delay_us(20);
0139E:  MOVLW  1A
013A0:  MOVWF  00
013A2:  DECFSZ 00,F
013A4:  BRA    13A2
013A6:  NOP   
....................             adc_value = read_adc();
013A8:  BCF    FC0.0
013AA:  BSF    FC0.1
013AC:  BTFSS  FC0.0
013AE:  BRA    13AC
013B0:  MOVFF  FC3,29
013B4:  MOVFF  FC2,28
.................... 
....................             // ŃāóŃāŗŃé┐ĶĪ©ńż║
....................             fprintf(PORT1, "Time:%lu ms | REC: %lu (Addr: 0x%04lX)\r\n",
....................                     total_milliseconds, adc_value, current_addr);
013B8:  MOVLW  D8
013BA:  MOVWF  FF6
013BC:  MOVLW  03
013BE:  MOVWF  FF7
013C0:  MOVLW  00
013C2:  MOVWF  FF8
013C4:  MOVLW  05
013C6:  MOVWF  4E
013C8:  MOVLB  0
013CA:  CALL   06C4
013CE:  MOVLW  41
013D0:  MOVWF  FE9
013D2:  MOVFF  26,51
013D6:  MOVFF  25,50
013DA:  MOVFF  24,4F
013DE:  MOVFF  23,4E
013E2:  CALL   077A
013E6:  MOVLW  E0
013E8:  MOVWF  FF6
013EA:  MOVLW  03
013EC:  MOVWF  FF7
013EE:  MOVLW  00
013F0:  MOVWF  FF8
013F2:  MOVLW  0B
013F4:  MOVWF  4E
013F6:  CALL   06C4
013FA:  MOVLW  10
013FC:  MOVWF  FE9
013FE:  MOVFF  29,4F
01402:  MOVFF  28,4E
01406:  CALL   0B3C
0140A:  MOVLW  EE
0140C:  MOVWF  FF6
0140E:  MOVLW  03
01410:  MOVWF  FF7
01412:  MOVLW  00
01414:  MOVWF  FF8
01416:  MOVLW  0A
01418:  MOVWF  4E
0141A:  CALL   06C4
0141E:  MOVFF  2B,65
01422:  MOVLW  37
01424:  MOVWF  x66
01426:  CALL   049A
0142A:  MOVFF  2A,65
0142E:  MOVLW  37
01430:  MOVWF  x66
01432:  CALL   049A
01436:  MOVLW  FD
01438:  MOVWF  FF6
0143A:  MOVLW  03
0143C:  MOVWF  FF7
0143E:  MOVLW  00
01440:  MOVWF  FF8
01442:  MOVLW  03
01444:  MOVWF  4E
01446:  CALL   06C4
.................... 
....................             // FlashµøĖŃüŹĶŠ╝Ńü┐ŃāćŃā╝Ńé┐õĮ£µłÉ (8ŃāÉŃéżŃāł)
....................             // Time (4byte: 32bit)
....................             flash_buf[0] = make8(total_milliseconds, 3); // MSB
0144A:  MOVFF  26,34
....................             flash_buf[1] = make8(total_milliseconds, 2);
0144E:  MOVFF  25,35
....................             flash_buf[2] = make8(total_milliseconds, 1);
01452:  MOVFF  24,36
....................             flash_buf[3] = make8(total_milliseconds, 0); // LSB
01456:  MOVFF  23,37
.................... 
....................             // ADC (2byte: 16bit)
....................             flash_buf[4] = make8(adc_value, 1);
0145A:  MOVFF  29,38
....................             flash_buf[5] = make8(adc_value, 0);
0145E:  MOVFF  28,39
.................... 
....................             // Padding (2byte) - Õ░åµØźŃü«µŗĪÕ╝Ąńö© or õ║łÕéÖ
....................             flash_buf[6] = 0x00;
01462:  CLRF   3A
....................             flash_buf[7] = 0x00;
01464:  CLRF   3B
.................... 
....................             // µøĖŃüŹĶŠ╝Ńü┐Õ«¤ĶĪī (8ŃāÉŃéżŃāłÕŹśõĮŹŃü¬Ńü«Ńü¦256ŃāÉŃéżŃāłÕóāńĢīŃééÕĢÅķĪīŃü¬ŃüŚ)
....................             write_data_bytes_flash1g(current_addr, PACKET_SIZE, flash_buf);
01466:  MOVFF  2D,51
0146A:  MOVFF  2C,50
0146E:  MOVFF  2B,4F
01472:  MOVFF  2A,4E
01476:  MOVLW  08
01478:  MOVWF  52
0147A:  CLRF   54
0147C:  MOVLW  34
0147E:  MOVWF  53
01480:  BRA    0DAA
.................... 
....................             current_addr += PACKET_SIZE;
01482:  MOVLW  08
01484:  ADDWF  2A,F
01486:  MOVLW  00
01488:  ADDWFC 2B,F
0148A:  ADDWFC 2C,F
0148C:  ADDWFC 2D,F
....................             recorded_count++;
0148E:  MOVLW  01
01490:  ADDWF  2E,F
01492:  BTFSC  FD8.0
01494:  INCF   2F,F
01496:  BTFSC  FD8.2
01498:  INCF   30,F
0149A:  BTFSC  FD8.2
0149C:  INCF   31,F
.................... 
....................             // Ńé╗Ńā╝ŃāĢŃāåŃéŻ
....................             if(current_addr >= 0xFFFF)
0149E:  MOVF   2D,F
014A0:  BNZ   14B6
014A2:  MOVF   2C,F
014A4:  BNZ   14B6
014A6:  MOVF   2B,W
014A8:  SUBLW  FE
014AA:  BC    14C8
014AC:  XORLW  FF
014AE:  BNZ   14B6
014B0:  MOVF   2A,W
014B2:  SUBLW  FE
014B4:  BC    14C8
....................             {
....................                 state = STATE_IDLE;
014B6:  CLRF   32
....................                 fprintf(PORT1, "\r\n[WARN] Memory Sector Full. Auto Stopped.\r\n");
014B8:  MOVLW  02
014BA:  MOVWF  FF6
014BC:  MOVLW  04
014BE:  MOVWF  FF7
014C0:  MOVLW  00
014C2:  MOVWF  FF8
014C4:  CALL   0430
....................             }
.................... 
....................             // ŃéĄŃā│ŃāŚŃā¬Ńā│Ńé░Õæ©µ£¤Ńü«Ķ¬┐µĢ┤
....................             delay_ms(100);
014C8:  MOVLW  64
014CA:  MOVWF  5B
014CC:  CALL   05EA
....................         }
014D0:  BRA    14DA
....................         else
....................         {
....................             delay_ms(50);
014D2:  MOVLW  32
014D4:  MOVWF  5B
014D6:  CALL   05EA
....................         }
014DA:  BRA    1066
....................     }
.................... }
014DC:  SLEEP 

Configuration Fuses:
   Word  1: F7A0   STVREN NOXINST NODEBUG BROWNOUT_SW BORV18 NOPROTECT
   Word  2: FF82   PR SOSC_DIG NOCLOCKOUT IESO NOPLL
   Word  3: F032   HS
   Word  4: F7FF   WPFP WPDIS WPEND NOWPCFG
   Word  5: FF03   T5G_IS_T5G CINA_DEFAULT IOL1WAY LS48MHZ MSSP2MSK7 MSSPMSK7
   Word  6: FCFF   WDTWIN_25% WDTCLK_FRC WDT32768 NOWDT WINDIS WPRES128
   Word  7: F01D   NOVREGSLEEP VBATBOR DSBOR DS_SW
   Word  8: F3F8   DSWDT_25DAYS NODSWDT DSWDTOSC_INT
