CCS PCH C Compiler, Version 5.104, 57077               18-2-26 17:01

               Filename:   C:\Users\rice_\Chiba Institute of Technology\6Źåŗ@ - āhāLāģāüāōāg\TMP_MIS\02_Software\PIC18_Practice\05_FLASH1.1\FLASH1.lst

               ROM used:   2828 bytes (2%)
                           Largest free fragment is 65520
               RAM used:   53 (1%) at main() level
                           80 (2%) worst case
               Stack used: 2 locations
               Stack size: 31

*
00000:  NOP   
00002:  GOTO   07C2
.................... #include "FLASH1.h"
.................... #include <18F67J94.h>
.................... //////////// Standard Header file for the PIC18F67J94 device ////////////////
.................... ///////////////////////////////////////////////////////////////////////////
.................... ////        (C) Copyright 1996, 2020 Custom Computer Services          ////
.................... //// This source code may only be used by licensed users of the CCS C  ////
.................... //// compiler.  This source code may only be distributed to other      ////
.................... //// licensed users of the CCS C compiler.  No other use, reproduction ////
.................... //// or distribution is permitted without written permission.          ////
.................... //// Derivative programs created using this software in object code    ////
.................... //// form are not restricted in any way.                               ////
.................... ///////////////////////////////////////////////////////////////////////////
.................... #device PIC18F67J94
00006:  DATA 31,47
00008:  DATA 62,69
0000A:  DATA 74,20
0000C:  DATA 66,6C
0000E:  DATA 61,73
00010:  DATA 68,20
00012:  DATA 62,75
00014:  DATA 73,79
00016:  DATA 0A,0D
00018:  DATA 00,00
0001A:  DATA 52,65
0001C:  DATA 61,64
0001E:  DATA 20,49
00020:  DATA 44,3A
00022:  DATA 00,00
00024:  DATA 66,6C
00026:  DATA 61,73
00028:  DATA 68,20
0002A:  DATA 63,6F
0002C:  DATA 6E,6E
0002E:  DATA 65,63
00030:  DATA 74,20
00032:  DATA 4F,4B
00034:  DATA 0D,0A
00036:  DATA 00,00
00038:  DATA 66,6C
0003A:  DATA 61,73
0003C:  DATA 68,20
0003E:  DATA 6E,6F
00040:  DATA 74,20
00042:  DATA 63,6F
00044:  DATA 6E,6E
00046:  DATA 65,63
00048:  DATA 74,0D
0004A:  DATA 0A,00
0004C:  DATA 66,6C
0004E:  DATA 61,73
00050:  DATA 68,20
00052:  DATA 74,69
00054:  DATA 6D,65
00056:  DATA 6F,75
00058:  DATA 74,00
0005A:  DATA 66,6C
0005C:  DATA 61,73
0005E:  DATA 68,20
00060:  DATA 74,69
00062:  DATA 6D,65
00064:  DATA 6F,75
00066:  DATA 74,00
00068:  DATA 66,6C
0006A:  DATA 61,73
0006C:  DATA 68,20
0006E:  DATA 74,69
00070:  DATA 6D,65
00072:  DATA 6F,75
00074:  DATA 74,00
00076:  DATA 66,6C
00078:  DATA 61,73
0007A:  DATA 68,20
0007C:  DATA 74,69
0007E:  DATA 6D,65
00080:  DATA 6F,75
00082:  DATA 74,00
00084:  DATA 66,6C
00086:  DATA 61,73
00088:  DATA 68,20
0008A:  DATA 74,69
0008C:  DATA 6D,65
0008E:  DATA 6F,75
00090:  DATA 74,00
00092:  DATA 3D,3D
00094:  DATA 50,72
00096:  DATA 6F,67
00098:  DATA 72,61
0009A:  DATA 6D,20
0009C:  DATA 53,74
0009E:  DATA 61,72
000A0:  DATA 74,3D
000A2:  DATA 3D,0D
000A4:  DATA 0A,00
000A6:  DATA 46,6C
000A8:  DATA 61,73
000AA:  DATA 68,20
000AC:  DATA 53,65
000AE:  DATA 74,74
000B0:  DATA 69,6E
000B2:  DATA 67,20
000B4:  DATA 53,74
000B6:  DATA 61,72
000B8:  DATA 74,69
000BA:  DATA 6E,67
000BC:  DATA 2E,2E
000BE:  DATA 2E,0D
000C0:  DATA 0A,00
000C2:  DATA 46,6C
000C4:  DATA 61,73
000C6:  DATA 68,20
000C8:  DATA 53,65
000CA:  DATA 74,74
000CC:  DATA 69,6E
000CE:  DATA 67,20
000D0:  DATA 64,6F
000D2:  DATA 6E,65
000D4:  DATA 2E,0D
000D6:  DATA 0A,00
000D8:  DATA 53,74
000DA:  DATA 61,74
000DC:  DATA 75,73
000DE:  DATA 20,52
000E0:  DATA 65,67
000E2:  DATA 69,73
000E4:  DATA 74,65
000E6:  DATA 72,20
000E8:  DATA 46,6C
000EA:  DATA 61,73
000EC:  DATA 68,31
000EE:  DATA 47,20
000F0:  DATA 53,74
000F2:  DATA 61,72
000F4:  DATA 74,69
000F6:  DATA 6E,67
000F8:  DATA 2E,2E
000FA:  DATA 2E,0D
000FC:  DATA 0A,00
000FE:  DATA 53,74
00100:  DATA 61,74
00102:  DATA 75,73
00104:  DATA 20,52
00106:  DATA 65,67
00108:  DATA 69,73
0010A:  DATA 74,65
0010C:  DATA 72,20
0010E:  DATA 46,6C
00110:  DATA 61,73
00112:  DATA 68,31
00114:  DATA 47,20
00116:  DATA 64,6F
00118:  DATA 6E,65
0011A:  DATA 2E,0D
0011C:  DATA 0A,00
0011E:  DATA 52,65
00120:  DATA 61,64
00122:  DATA 20,49
00124:  DATA 44,20
00126:  DATA 46,6C
00128:  DATA 61,73
0012A:  DATA 68,31
0012C:  DATA 47,20
0012E:  DATA 53,74
00130:  DATA 61,72
00132:  DATA 74,69
00134:  DATA 6E,67
00136:  DATA 2E,2E
00138:  DATA 2E,0D
0013A:  DATA 0A,00
0013C:  DATA 46,6C
0013E:  DATA 61,73
00140:  DATA 68,20
00142:  DATA 49,44
00144:  DATA 20,43
00146:  DATA 68,65
00148:  DATA 63,6B
0014A:  DATA 20,4F
0014C:  DATA 4B,2E
0014E:  DATA 0D,0A
00150:  DATA 00,00
00152:  DATA 46,6C
00154:  DATA 61,73
00156:  DATA 68,20
00158:  DATA 49,44
0015A:  DATA 20,43
0015C:  DATA 68,65
0015E:  DATA 63,6B
00160:  DATA 20,46
00162:  DATA 41,49
00164:  DATA 4C,45
00166:  DATA 44,2E
00168:  DATA 20,28
0016A:  DATA 43,68
0016C:  DATA 65,63
0016E:  DATA 6B,20
00170:  DATA 43,6F
00172:  DATA 6E,6E
00174:  DATA 65,63
00176:  DATA 74,69
00178:  DATA 6F,6E
0017A:  DATA 73,29
0017C:  DATA 0D,0A
0017E:  DATA 00,00
00180:  DATA 52,65
00182:  DATA 61,64
00184:  DATA 20,49
00186:  DATA 44,20
00188:  DATA 46,6C
0018A:  DATA 61,73
0018C:  DATA 68,31
0018E:  DATA 47,20
00190:  DATA 64,6F
00192:  DATA 6E,65
00194:  DATA 2E,0D
00196:  DATA 0A,00
00198:  DATA 0D,0A
0019A:  DATA 3D,3D
0019C:  DATA 3D,3D
0019E:  DATA 3D,3D
001A0:  DATA 3D,3D
001A2:  DATA 3D,3D
001A4:  DATA 3D,3D
001A6:  DATA 3D,3D
001A8:  DATA 3D,3D
001AA:  DATA 3D,3D
001AC:  DATA 3D,3D
001AE:  DATA 3D,3D
001B0:  DATA 3D,3D
001B2:  DATA 3D,3D
001B4:  DATA 3D,3D
001B6:  DATA 3D,3D
001B8:  DATA 3D,3D
001BA:  DATA 0D,0A
001BC:  DATA 00,00
001BE:  DATA 50,6C
001C0:  DATA 65,61
001C2:  DATA 73,65
001C4:  DATA 20,65
001C6:  DATA 6E,74
001C8:  DATA 65,72
001CA:  DATA 20,74
001CC:  DATA 65,78
001CE:  DATA 74,20
001D0:  DATA 28,6D
001D2:  DATA 61,78
001D4:  DATA 20,32
001D6:  DATA 30,20
001D8:  DATA 63,68
001DA:  DATA 61,72
001DC:  DATA 73,29
001DE:  DATA 20,61
001E0:  DATA 6E,64
001E2:  DATA 20,70
001E4:  DATA 72,65
001E6:  DATA 73,73
001E8:  DATA 20,45
001EA:  DATA 4E,54
001EC:  DATA 45,52
001EE:  DATA 3A,0D
001F0:  DATA 0A,3E
001F2:  DATA 20,00
001F4:  DATA 4E,6F
001F6:  DATA 20,74
001F8:  DATA 65,78
001FA:  DATA 74,20
001FC:  DATA 65,6E
001FE:  DATA 74,65
00200:  DATA 72,65
00202:  DATA 64,2E
00204:  DATA 20,54
00206:  DATA 72,79
00208:  DATA 20,61
0020A:  DATA 67,61
0020C:  DATA 69,6E
0020E:  DATA 2E,0D
00210:  DATA 0A,00
00212:  DATA 49,6E
00214:  DATA 70,75
00216:  DATA 74,20
00218:  DATA 72,65
0021A:  DATA 63,65
0021C:  DATA 69,76
0021E:  DATA 65,64
00220:  DATA 3A,20
00222:  DATA 25,73
00224:  DATA 20,28
00226:  DATA 4C,65
00228:  DATA 6E,67
0022A:  DATA 74,68
0022C:  DATA 3A,20
0022E:  DATA 25,75
00230:  DATA 29,0D
00232:  DATA 0A,00
00234:  DATA 53,65
00236:  DATA 63,74
00238:  DATA 6F,72
0023A:  DATA 20,45
0023C:  DATA 72,61
0023E:  DATA 73,65
00240:  DATA 20,46
00242:  DATA 6C,61
00244:  DATA 73,68
00246:  DATA 31,47
00248:  DATA 20,28
0024A:  DATA 41,64
0024C:  DATA 64,72
0024E:  DATA 3A,20
00250:  DATA 30,78
00252:  DATA 30,30
00254:  DATA 30,30
00256:  DATA 29,2E
00258:  DATA 2E,2E
0025A:  DATA 0D,0A
0025C:  DATA 00,00
0025E:  DATA 53,65
00260:  DATA 63,74
00262:  DATA 6F,72
00264:  DATA 20,45
00266:  DATA 72,61
00268:  DATA 73,65
0026A:  DATA 20,64
0026C:  DATA 6F,6E
0026E:  DATA 65,2E
00270:  DATA 0D,0A
00272:  DATA 00,00
00274:  DATA 57,72
00276:  DATA 69,74
00278:  DATA 69,6E
0027A:  DATA 67,20
0027C:  DATA 44,61
0027E:  DATA 74,61
00280:  DATA 2E,2E
00282:  DATA 2E,0D
00284:  DATA 0A,00
00286:  DATA 57,72
00288:  DATA 69,74
0028A:  DATA 65,20
0028C:  DATA 64,6F
0028E:  DATA 6E,65
00290:  DATA 2E,0D
00292:  DATA 0A,00
00294:  DATA 52,65
00296:  DATA 61,64
00298:  DATA 69,6E
0029A:  DATA 67,20
0029C:  DATA 44,61
0029E:  DATA 74,61
002A0:  DATA 2E,2E
002A2:  DATA 2E,0D
002A4:  DATA 0A,00
002A6:  DATA 52,65
002A8:  DATA 61,64
002AA:  DATA 20,52
002AC:  DATA 65,73
002AE:  DATA 75,6C
002B0:  DATA 74,28
002B2:  DATA 53,74
002B4:  DATA 72,69
002B6:  DATA 6E,67
002B8:  DATA 29,3A
002BA:  DATA 20,25
002BC:  DATA 73,0D
002BE:  DATA 0A,00
002C0:  DATA 52,65
002C2:  DATA 61,64
002C4:  DATA 20,52
002C6:  DATA 65,73
002C8:  DATA 75,6C
002CA:  DATA 74,28
002CC:  DATA 48,65
002CE:  DATA 78,29
002D0:  DATA 3A,20
002D2:  DATA 00,00
002D4:  TBLRD*+
002D6:  MOVF   FF5,F
002D8:  BZ    02FC
002DA:  MOVFF  FF6,49
002DE:  MOVFF  FF7,4A
002E2:  MOVFF  FF8,4B
002E6:  MOVF   FF5,W
002E8:  BTFSS  F9E.4
002EA:  BRA    02E8
002EC:  MOVWF  FAD
002EE:  MOVFF  49,FF6
002F2:  MOVFF  4A,FF7
002F6:  MOVFF  4B,FF8
002FA:  BRA    02D4
002FC:  RETURN 0
*
00382:  BTFSC  4B.7
00384:  BRA    03A6
00386:  MOVLW  0F
00388:  MOVWF  00
0038A:  SWAPF  4A,W
0038C:  ANDWF  00,F
0038E:  MOVLW  0A
00390:  SUBWF  00,W
00392:  BC    039A
00394:  MOVLW  30
00396:  ADDWF  00,F
00398:  BRA    039E
0039A:  MOVF   4B,W
0039C:  ADDWF  00,F
0039E:  MOVF   00,W
003A0:  BTFSS  F9E.4
003A2:  BRA    03A0
003A4:  MOVWF  FAD
003A6:  MOVLW  0F
003A8:  ANDWF  4A,F
003AA:  MOVLW  0A
003AC:  SUBWF  4A,W
003AE:  BC    03B4
003B0:  MOVLW  30
003B2:  BRA    03B8
003B4:  BCF    4B.7
003B6:  MOVF   4B,W
003B8:  ADDWF  4A,F
003BA:  MOVF   4A,W
003BC:  BTFSS  F9E.4
003BE:  BRA    03BC
003C0:  MOVWF  FAD
003C2:  RETURN 0
*
00496:  TBLRD*+
00498:  MOVFF  FF6,34
0049C:  MOVFF  FF7,35
004A0:  MOVFF  FF8,36
004A4:  MOVF   FF5,W
004A6:  BTFSS  F9E.4
004A8:  BRA    04A6
004AA:  MOVWF  FAD
004AC:  MOVFF  34,FF6
004B0:  MOVFF  35,FF7
004B4:  MOVFF  36,FF8
004B8:  DECFSZ 33,F
004BA:  BRA    0496
004BC:  RETURN 0
004BE:  MOVF   FEF,F
004C0:  BZ    04E2
004C2:  MOVFF  FEA,34
004C6:  MOVFF  FE9,33
004CA:  MOVF   FEF,W
004CC:  BTFSS  F9E.4
004CE:  BRA    04CC
004D0:  MOVWF  FAD
004D2:  MOVFF  34,FEA
004D6:  MOVFF  33,FE9
004DA:  INCF   FE9,F
004DC:  BTFSC  FD8.2
004DE:  INCF   FEA,F
004E0:  BRA    04BE
004E2:  RETURN 0
004E4:  MOVF   36,W
004E6:  CLRF   01
004E8:  SUBWF  35,W
004EA:  BC    04F2
004EC:  MOVFF  35,00
004F0:  BRA    050A
004F2:  CLRF   00
004F4:  MOVLW  08
004F6:  MOVWF  37
004F8:  RLCF   35,F
004FA:  RLCF   00,F
004FC:  MOVF   36,W
004FE:  SUBWF  00,W
00500:  BTFSC  FD8.0
00502:  MOVWF  00
00504:  RLCF   01,F
00506:  DECFSZ 37,F
00508:  BRA    04F8
0050A:  RETURN 0
0050C:  MOVF   01,W
0050E:  MOVFF  33,35
00512:  MOVLW  64
00514:  MOVWF  36
00516:  RCALL  04E4
00518:  MOVFF  00,33
0051C:  MOVF   01,W
0051E:  MOVLW  30
00520:  BNZ   0530
00522:  BTFSS  34.1
00524:  BRA    0540
00526:  BTFSC  34.3
00528:  BRA    0540
0052A:  BTFSC  34.4
0052C:  MOVLW  20
0052E:  BRA    0536
00530:  BCF    34.3
00532:  BCF    34.4
00534:  BSF    34.0
00536:  ADDWF  01,F
00538:  MOVF   01,W
0053A:  BTFSS  F9E.4
0053C:  BRA    053A
0053E:  MOVWF  FAD
00540:  MOVFF  33,35
00544:  MOVLW  0A
00546:  MOVWF  36
00548:  RCALL  04E4
0054A:  MOVFF  00,33
0054E:  MOVF   01,W
00550:  MOVLW  30
00552:  BNZ   0560
00554:  BTFSC  34.3
00556:  BRA    056A
00558:  BTFSS  34.0
0055A:  BRA    056A
0055C:  BTFSC  34.4
0055E:  MOVLW  20
00560:  ADDWF  01,F
00562:  MOVF   01,W
00564:  BTFSS  F9E.4
00566:  BRA    0564
00568:  MOVWF  FAD
0056A:  MOVLW  30
0056C:  ADDWF  33,F
0056E:  MOVF   33,W
00570:  BTFSS  F9E.4
00572:  BRA    0570
00574:  MOVWF  FAD
00576:  GOTO   09EE (RETURN)
.................... 
.................... #list
.................... 
.................... 
.................... 
.................... 
.................... 
.................... #FUSES NOWDT                    //No Watch Dog Timer
.................... #device ADC = 12
.................... #use delay(crystal=16000000)
0057A:  CLRF   FEA
0057C:  MOVLW  40
0057E:  MOVWF  FE9
00580:  MOVF   FEF,W
00582:  BZ    05A0
00584:  MOVLW  05
00586:  MOVWF  01
00588:  CLRF   00
0058A:  DECFSZ 00,F
0058C:  BRA    058A
0058E:  DECFSZ 01,F
00590:  BRA    0588
00592:  MOVLW  2E
00594:  MOVWF  00
00596:  DECFSZ 00,F
00598:  BRA    0596
0059A:  BRA    059C
0059C:  DECFSZ FEF,F
0059E:  BRA    0584
005A0:  RETURN 0
.................... 
.................... #pin_select U1TX = PIN_F7
.................... #pin_select U1RX = PIN_F5
.................... #use rs232(baud=9600, UART1, parity=N,bits=8,stream=PORT1)
*
0048E:  BTFSS  F9E.4
00490:  BRA    048E
00492:  MOVWF  FAD
00494:  RETURN 0
.................... 
.................... #pin_select U2TX = PIN_D3
.................... #pin_select U2RX =    PIN_D2
.................... #use rs232(baud=9600, UART2, parity=N,bits=8,stream=PORT2)
.................... 
.................... #pin_select U3TX = PIN_E5
.................... #pin_select U3RX = PIN_E4
.................... #use rs232(baud=9600, UART3, parity=N,bits=8,stream=PORT3)
.................... 
.................... #pin_select U4TX = PIN_E3
.................... #pin_select U4RX = PIN_F2
.................... #use rs232(baud=9600, UART4, parity=N,bits=8,stream=PORT4)
.................... 
.................... //#define SPI1_CS PIN_A2
.................... //#use spi (MASTER, CLK = PIN_A3, DI = PIN_A0, DO = PIN_A1,BAUD=1000000, MODE=0, BITS=8, STREAM=SPI1)
.................... 
.................... #define SPI2_CS PIN_B3
.................... #use spi (MASTER, CLK = PIN_B2, DI = PIN_B5, DO = PIN_B4,BAUD=1000000, MODE=0, BITS=8, STREAM=SPI2)
*
00306:  MOVF   4C,W
00308:  SUBLW  08
0030A:  BZ    0314
0030C:  MOVWF  4E
0030E:  RLCF   4B,F
00310:  DECFSZ 4E,F
00312:  BRA    030E
00314:  BSF    F93.5
00316:  BCF    F93.4
00318:  BCF    F93.2
0031A:  BCF    F8A.2
0031C:  MOVFF  4C,4E
00320:  BTFSS  4B.7
00322:  BCF    F8A.4
00324:  BTFSC  4B.7
00326:  BSF    F8A.4
00328:  RLCF   4B,F
0032A:  BSF    F8A.2
0032C:  RLCF   01,F
0032E:  BTFSS  F81.5
00330:  BCF    01.0
00332:  BTFSC  F81.5
00334:  BSF    01.0
00336:  BCF    F8A.2
00338:  DECFSZ 4E,F
0033A:  BRA    0320
0033C:  RETURN 0
.................... 
.................... #define DIO_3 PIN_G0
.................... #define DIO_4 PIN_G1
.................... #define DIO_5 PIN_G2
.................... #define DIO_6 PIN_G3
.................... #define DIO_8 PIN_G4
.................... #define DIO_12 PIN_F6
.................... #define DIO_27 PIN_A5
.................... #define DIO_28 PIN_A4
.................... #define DIO_29 PIN_C1
.................... #define DIO_30 PIN_C0
.................... #define DIO_31 PIN_C6
.................... #define DIO_32 PIN_C7
.................... #define DIO_33 PIN_C2
.................... #define DIO_34 PIN_C3
.................... #define DIO_35 PIN_C4
.................... #define DIO_36 PIN_C5
.................... #define DIO_47 PIN_B1
.................... #define DIO_48 PIN_B0
.................... #define DIO_49 PIN_D7
.................... #define DIO_50 PIN_D6
.................... #define DIO_51 PIN_D5
.................... #define DIO_52 PIN_D4
.................... #define DIO_55 PIN_D1
.................... #define DIO_58 PIN_D0
.................... #define DIO_59 PIN_E7
.................... 
.................... #include <GDNS_tbd_FlashOperation.c>
.................... #include <GDNS_tbd_FlashOperation.h>
.................... #define DEBUG
.................... #define USE_FLASH1G     //MT25QL01GBBB:SMF,CF
.................... //#define USE_FLASH128M   //MT25QL128ABA:PICF,GF
.................... 
.................... //////////////////////////////port select//////////////////////////////////////
.................... #ifdef DEBUG
....................    #define DEBUG_PORT PORT1
.................... #endif
.................... 
.................... #ifdef USE_FLASH1G
....................    #define FLASH1G SPI2//port for 1 Gbit Flash
....................    #define FLASH1G_CS PIN_B3
.................... #endif
.................... 
.................... #ifdef USE_FLASH128M
....................    #define FLASH128M SPI2//port for 128 Mbit Flash
....................    #define FLASH128M_CS PIN_B3
.................... #endif
.................... 
.................... ////////////////////////////////CMD List///////////////////////////////////////
.................... #define READ_ID                     0x9F
.................... #define READ_STATUS_REGISTER        0x05
.................... #define READ                        0x03
.................... #define READ_4BYTE                  0x13
.................... #define WRITE_ENABLE                0x06
.................... #define PAGE_PROGRAM                0x02
.................... #define PAGE_PROGRAM_4BYTE          0x12
.................... #define SUBSECTOR_4KB_ERASE         0x20
.................... #define SUBSECTOR_4KB_ERASE_4BYTE   0x21
.................... #define SUBSECTOR_32KB_ERASE        0x52
.................... #define SUBSECTOR_32KB_ERASE_4BYTE  0x5C
.................... #define SECTOR_ERASE                0xD8
.................... #define SECTOR_ERASE_4BYTE          0xDC
.................... 
.................... ///////////////////////////function List///////////////////////////////////////
.................... #ifdef USE_FLASH1G
....................    int8 status_register_flash1g();                                                                       //bit[7:2]status register control bit,bit[1]write enable bit T:ennable F:disable,bit[0]write in progress bit T:busy F:ready
....................    int8 read_id_flash1g();                                                                               //T:Flash id read successfully(connect OK),F:Flash id read failed
....................    void sector_erase_flash1g(unsigned int32 sector_address);                                             //64kByte erase
....................    void subsector_32kByte_erase_flash1g(unsigned int32 subsector_address);                               //32kByte erase
....................    void subsector_4kByte_erase_flash1g(unsigned int32 subsector_address);                                //4kByte erase
....................    int8 read_data_byte_flash1g(unsigned int32 read_address);                                             //read 1 Byte data
....................    void read_data_bytes_flash1g(unsigned int32 read_address,unsigned int32 amount,int8 *read_data);      //read multi Bytes data(max 128 MByte) and store to "read data"
....................    void write_data_byte_flash1g(unsigned int32 write_address,int8 write_data);                           //write 1 Byte data to flash
....................    void write_data_bytes_flash1g(unsigned int32 write_address,int8 amount,int8 *write_data);             //write multi Bytes data(max128 Byte) to flash
.................... #endif
....................    
.................... #ifdef USE_FLASH128M
....................    int8 status_register_flash128m();                                                                     //bit[7:2]status register control bit,bit[1]write enable bit T:ennable F:disable,bit[0]write in progress bit T:busy F:ready
....................    int8 read_id_flash128m();                                                                             //T:Flash id read successfully(connect OK),F:Flash id read failed
....................    void sector_erase_flash128m(unsigned int32 sector_address);                                           //64kByte erase
....................    void subsector_32kByte_erase_flash128m(unsigned int32 subsector_address);                             //32kByte erase
....................    void subsector_4kByte_erase_flash128m(unsigned int32 subsector_address);                              //4kByte erase
....................    int8 read_data_byte_flash128m(unsigned int32 read_address);                                           //read 1 Byte data
....................    void read_data_bytes_flash128m(unsigned int32 read_address,unsigned int32 amount,int8 *read_data);    //read multi Bytes data(max 128 MByte) and store to "read data"
....................    void write_data_byte_flash128m(unsigned int32 write_address,int8 write_data);                         //write 1 Byte data to flash
....................    void write_data_bytes_flash128m(unsigned int32 write_address,int8 amount,int8 *write_data);           //write multi Bytes data(max128 Byte) to flash
.................... #endif
....................    
.................... 
.................... 
.................... void flash_setting()
.................... {
....................    #ifdef USE_FLASH1G
....................       output_high(FLASH1G_CS);
*
002FE:  BCF    F93.3
00300:  BSF    F8A.3
....................    #endif
....................    #ifdef USE_FLASH128M
00302:  GOTO   08A8 (RETURN)
....................       output_high(FLASH128M_CS);
....................    #endif
.................... }
.................... 
.................... #ifdef USE_FLASH1G
....................    int8 status_register_flash1g()
....................    {
....................       int8 status_reg;
....................       output_low(FLASH1G_CS);                                              //lower the CS PIN
*
0033E:  BCF    F93.3
00340:  BCF    F8A.3
....................       spi_xfer(FLASH1G,READ_STATUS_REGISTER);                              //READ STATUS REGISTER COMAND  (0x05)
00342:  MOVLW  05
00344:  MOVWF  4B
00346:  MOVLW  08
00348:  MOVWF  4C
0034A:  MOVLW  01
0034C:  MOVWF  4D
0034E:  RCALL  0306
....................       status_reg = spi_xfer(FLASH1G);
00350:  MOVLW  01
00352:  MOVWF  4B
00354:  MOVLW  08
00356:  MOVWF  4C
00358:  MOVLW  01
0035A:  MOVWF  4D
0035C:  RCALL  0306
0035E:  MOVFF  01,40
....................       output_high(FLASH1G_CS);                                             //take CS PIN higher back
00362:  BCF    F93.3
00364:  BSF    F8A.3
....................       #ifdef DEBUG
....................          if((status_reg & 0x01) == true)                                          //masking status bit   
00366:  MOVF   40,W
00368:  ANDLW  01
0036A:  SUBLW  01
0036C:  BNZ   037C
....................             fprintf(DEBUG_PORT,"1Gbit flash busy\n\r");
0036E:  MOVLW  06
00370:  MOVWF  FF6
00372:  MOVLW  00
00374:  MOVWF  FF7
00376:  MOVLW  00
00378:  MOVWF  FF8
0037A:  RCALL  02D4
....................       #endif
....................       return status_reg;
0037C:  MOVFF  40,01
00380:  RETURN 0
....................    }
....................    
....................    int8 read_id_flash1g()//->success:True,fail:false
....................    {
....................       int8 chip_id[21];
....................       output_low(FLASH1G_CS);
*
003C4:  BCF    F93.3
003C6:  BCF    F8A.3
....................       for (int8 i = 0;i < 21;i++)
003C8:  CLRF   48
003CA:  MOVF   48,W
003CC:  SUBLW  14
003CE:  BNC   0448
....................       {
....................          if (i == 0)
003D0:  MOVF   48,F
003D2:  BNZ   0404
....................          {
....................             chip_id[i] = spi_xfer(FLASH1G,READ_ID);
003D4:  CLRF   03
003D6:  MOVF   48,W
003D8:  ADDLW  33
003DA:  MOVWF  FE9
003DC:  MOVLW  00
003DE:  ADDWFC 03,W
003E0:  MOVWF  FEA
003E2:  MOVLW  9F
003E4:  MOVWF  4B
003E6:  MOVLW  08
003E8:  MOVWF  4C
003EA:  MOVLW  01
003EC:  MOVWF  4D
003EE:  RCALL  0306
003F0:  MOVFF  01,FEF
....................             #ifdef DEBUG
....................                fprintf(DEBUG_PORT,"Read ID:");
003F4:  MOVLW  1A
003F6:  MOVWF  FF6
003F8:  MOVLW  00
003FA:  MOVWF  FF7
003FC:  MOVLW  00
003FE:  MOVWF  FF8
00400:  RCALL  02D4
....................             #endif
....................          }
00402:  BRA    0444
....................          else
....................          {
....................             chip_id[i] = spi_xfer(FLASH1G);
00404:  CLRF   03
00406:  MOVF   48,W
00408:  ADDLW  33
0040A:  MOVWF  FE9
0040C:  MOVLW  00
0040E:  ADDWFC 03,W
00410:  MOVWF  FEA
00412:  MOVLW  01
00414:  MOVWF  4B
00416:  MOVLW  08
00418:  MOVWF  4C
0041A:  MOVLW  01
0041C:  MOVWF  4D
0041E:  RCALL  0306
00420:  MOVFF  01,FEF
....................             #ifdef DEBUG
....................                fprintf(DEBUG_PORT,"%x ",chip_id[i]);
00424:  CLRF   03
00426:  MOVF   48,W
00428:  ADDLW  33
0042A:  MOVWF  FE9
0042C:  MOVLW  00
0042E:  ADDWFC 03,W
00430:  MOVWF  FEA
00432:  MOVFF  FEF,4A
00436:  MOVLW  57
00438:  MOVWF  4B
0043A:  RCALL  0382
0043C:  MOVLW  20
0043E:  BTFSS  F9E.4
00440:  BRA    043E
00442:  MOVWF  FAD
....................             #endif   
....................          }
00444:  INCF   48,F
00446:  BRA    03CA
....................       }
....................       output_high(FLASH1G_CS);
00448:  BCF    F93.3
0044A:  BSF    F8A.3
....................       #ifdef DEBUG
....................          fprintf(DEBUG_PORT,"\r\n");
0044C:  MOVLW  0D
0044E:  BTFSS  F9E.4
00450:  BRA    044E
00452:  MOVWF  FAD
00454:  MOVLW  0A
00456:  BTFSS  F9E.4
00458:  BRA    0456
0045A:  MOVWF  FAD
....................       #endif
....................       //chip id check
....................       if(chip_id[1] == 0x20)
0045C:  MOVF   34,W
0045E:  SUBLW  20
00460:  BNZ   0478
....................       {  
....................          #ifdef DEBUG
....................             fprintf(DEBUG_PORT,"flash connect OK\r\n");
00462:  MOVLW  24
00464:  MOVWF  FF6
00466:  MOVLW  00
00468:  MOVWF  FF7
0046A:  MOVLW  00
0046C:  MOVWF  FF8
0046E:  RCALL  02D4
....................          #endif
....................          return true;
00470:  MOVLW  01
00472:  MOVWF  01
00474:  BRA    048A
....................       }
00476:  BRA    048A
....................       else
....................       {
....................          #ifdef DEBUG
....................             fprintf(DEBUG_PORT,"flash not connect\r\n");
00478:  MOVLW  38
0047A:  MOVWF  FF6
0047C:  MOVLW  00
0047E:  MOVWF  FF7
00480:  MOVLW  00
00482:  MOVWF  FF8
00484:  RCALL  02D4
....................          #endif
....................          return false;
00486:  MOVLW  00
00488:  MOVWF  01
....................       }
0048A:  GOTO   08E4 (RETURN)
....................    }
....................    
....................    void sector_erase_flash1g(unsigned int32 sector_address)
*
005A2:  CLRF   3B
....................    {
....................       unsigned int8 address[4];
....................       unsigned int8 timeout_counter = 0;
....................       
....................       address[0]  = (unsigned int8)((sector_address>>24) & 0xff);   // 0x _ _ 00 00 00
005A4:  MOVFF  36,37
....................       address[1]  = (unsigned int8)((sector_address>>16) & 0xff);   // 0x 00 _ _ 00 00
005A8:  MOVFF  35,38
....................       address[2]  = (unsigned int8)((sector_address>>8) & 0xff);    // 0x 00 00 _ _ 00
005AC:  MOVFF  34,39
....................       address[3]  = (unsigned int8)((sector_address) & 0xff);       // 0x 00 00 00 _ _
005B0:  MOVFF  33,3A
....................       
....................       //Write enable sequence
....................       output_low(FLASH1G_CS);
005B4:  BCF    F93.3
005B6:  BCF    F8A.3
....................       spi_xfer(FLASH1G,WRITE_ENABLE);
005B8:  MOVLW  06
005BA:  MOVWF  4B
005BC:  MOVLW  08
005BE:  MOVWF  4C
005C0:  MOVLW  01
005C2:  MOVWF  4D
005C4:  RCALL  0306
....................       output_high(FLASH1G_CS);
005C6:  BCF    F93.3
005C8:  BSF    F8A.3
....................       //Write enabled
....................       
....................       output_low(FLASH1G_CS);
005CA:  BCF    F93.3
005CC:  BCF    F8A.3
....................       ///////////////////////////////////////////////////////////////////
....................       spi_xfer(FLASH1G,SECTOR_ERASE_4BYTE); //SECTOR ERASE COMAND   (0xDC)
005CE:  MOVLW  DC
005D0:  MOVWF  4B
005D2:  MOVLW  08
005D4:  MOVWF  4C
005D6:  MOVLW  01
005D8:  MOVWF  4D
005DA:  RCALL  0306
....................       
....................       spi_xfer(FLASH1G,address[0]);   
005DC:  MOVFF  37,4B
005E0:  MOVLW  08
005E2:  MOVWF  4C
005E4:  MOVLW  01
005E6:  MOVWF  4D
005E8:  RCALL  0306
....................       spi_xfer(FLASH1G,address[1]);    
005EA:  MOVFF  38,4B
005EE:  MOVLW  08
005F0:  MOVWF  4C
005F2:  MOVLW  01
005F4:  MOVWF  4D
005F6:  RCALL  0306
....................       spi_xfer(FLASH1G,address[2]);    
005F8:  MOVFF  39,4B
005FC:  MOVLW  08
005FE:  MOVWF  4C
00600:  MOVLW  01
00602:  MOVWF  4D
00604:  RCALL  0306
....................       spi_xfer(FLASH1G,address[3]);
00606:  MOVFF  3A,4B
0060A:  MOVLW  08
0060C:  MOVWF  4C
0060E:  MOVLW  01
00610:  MOVWF  4D
00612:  RCALL  0306
....................       //////////////////////////////////////////////////////////////////
.................... 
....................       output_high(FLASH1G_CS);            //take CS PIN higher back
00614:  BCF    F93.3
00616:  BSF    F8A.3
....................       
....................       while((status_register_flash1g() & 0x01) == 1)                                          //masking status bit
00618:  RCALL  033E
0061A:  MOVF   01,W
0061C:  ANDLW  01
0061E:  SUBLW  01
00620:  BNZ   0650
....................       {
....................          if(timeout_counter > 10)
00622:  MOVF   3B,W
00624:  SUBLW  0A
00626:  BC    0630
....................             delay_ms(200);
00628:  MOVLW  C8
0062A:  MOVWF  40
0062C:  RCALL  057A
0062E:  BRA    0636
....................          else
....................             delay_ms(10);   
00630:  MOVLW  0A
00632:  MOVWF  40
00634:  RCALL  057A
....................          
....................          if(timeout_counter > 100)
00636:  MOVF   3B,W
00638:  SUBLW  64
0063A:  BC    064C
....................          {
....................             #ifdef DEBUG
....................                fprintf(DEBUG_PORT,"flash timeout");
0063C:  MOVLW  4C
0063E:  MOVWF  FF6
00640:  MOVLW  00
00642:  MOVWF  FF7
00644:  MOVLW  00
00646:  MOVWF  FF8
00648:  RCALL  02D4
....................             #endif
....................             break;
0064A:  BRA    0650
....................          }  
....................          timeout_counter++;
0064C:  INCF   3B,F
0064E:  BRA    0618
....................       }
....................       return;
00650:  GOTO   0A18 (RETURN)
....................    }
....................    
....................    void subsector_32kByte_erase_flash1g(unsigned int32 subsector_address)
....................    {
....................       unsigned int8 address[4];
....................       unsigned int8 timeout_counter = 0;
....................       
....................       address[0]  = (unsigned int8)((subsector_address>>24) & 0xff);   // 0x _ _ 00 00 00
....................       address[1]  = (unsigned int8)((subsector_address>>16) & 0xff);   // 0x 00 _ _ 00 00
....................       address[2]  = (unsigned int8)((subsector_address>>8) & 0xff);    // 0x 00 00 _ _ 00
....................       address[3]  = (unsigned int8)((subsector_address) & 0xff);       // 0x 00 00 00 _ _
....................       
....................       //Write enable sequence
....................       output_low(FLASH1G_CS);
....................       spi_xfer(FLASH1G,WRITE_ENABLE);
....................       output_high(FLASH1G_CS);
....................       //Write enabled
....................       
....................       output_low(FLASH1G_CS);
....................       ///////////////////////////////////////////////////////////////////
....................       spi_xfer(FLASH1G,SUBSECTOR_32KB_ERASE_4BYTE);
....................       
....................       spi_xfer(FLASH1G,address[0]);   
....................       spi_xfer(FLASH1G,address[1]);    
....................       spi_xfer(FLASH1G,address[2]);    
....................       spi_xfer(FLASH1G,address[3]);
....................       //////////////////////////////////////////////////////////////////
....................       output_high(FLASH1G_CS);            //take CS PIN higher back
....................       
....................       while((status_register_flash1g() & 0x01) == 1)                                          //masking status bit
....................       {
....................          if(timeout_counter > 10)
....................             delay_ms(200);
....................          else
....................             delay_ms(10);   
....................          
....................          if(timeout_counter > 100)
....................          {
....................             #ifdef DEBUG
....................                fprintf(DEBUG_PORT,"flash timeout");
....................             #endif
....................             break;
....................          }  
....................          timeout_counter++;
....................       }
....................    }
....................    
....................    void subsector_4kByte_erase_flash1g(unsigned int32 subsector_address)//4kByte erase
....................    {
....................       unsigned int8 address[4];
....................       unsigned int8 timeout_counter = 0;
....................       
....................       address[0]  = (unsigned int8)((subsector_address>>24) & 0xff);   // 0x _ _ 00 00 00
....................       address[1]  = (unsigned int8)((subsector_address>>16) & 0xff);   // 0x 00 _ _ 00 00
....................       address[2]  = (unsigned int8)((subsector_address>>8) & 0xff);    // 0x 00 00 _ _ 00
....................       address[3]  = (unsigned int8)((subsector_address) & 0xff);       // 0x 00 00 00 _ _
....................       
....................       //Write enable sequence
....................       output_low(FLASH1G_CS);
....................       spi_xfer(FLASH1G,WRITE_ENABLE);
....................       output_high(FLASH1G_CS);
....................       //Write enabled
....................       
....................       output_low(FLASH1G_CS);
....................       ///////////////////////////////////////////////////////////////////
....................       spi_xfer(FLASH1G,SUBSECTOR_4KB_ERASE_4BYTE);
....................       
....................       spi_xfer(FLASH1G,address[0]);   
....................       spi_xfer(FLASH1G,address[1]);    
....................       spi_xfer(FLASH1G,address[2]);    
....................       spi_xfer(FLASH1G,address[3]);
....................       //////////////////////////////////////////////////////////////////
....................       
....................       delay_us(2);
....................       output_high(FLASH1G_CS);            //take CS PIN higher back
....................       
....................       while((status_register_flash1g() & 0x01) == 1)                                          //masking status bit
....................       {
....................          if(timeout_counter > 10)
....................             delay_ms(200);
....................          else
....................             delay_ms(10);   
....................          
....................          if(timeout_counter > 100)
....................          {
....................             #ifdef DEBUG
....................                fprintf(DEBUG_PORT,"flash timeout");
....................             #endif
....................             break;
....................          }  
....................          timeout_counter++;
....................       }
....................    }
....................       
....................    int8 read_data_byte_flash1g(unsigned int32 read_address)
....................    {
....................       int8 read_data;
....................       unsigned int8 address[4];
....................       
....................       address[0]  = (unsigned int8)((read_address>>24) & 0xff);   // 0x _ _ 00 00 00
....................       address[1]  = (unsigned int8)((read_address>>16) & 0xff);   // 0x 00 _ _ 00 00
....................       address[2]  = (unsigned int8)((read_address>>8) & 0xff);    // 0x 00 00 _ _ 00
....................       address[3]  = (unsigned int8)((read_address) & 0xff);       // 0x 00 00 00 _ _
....................    
....................       output_low(FLASH1G_CS);
....................       ///////////////////////////////////////////////////////////////////
....................       spi_xfer(FLASH1G,READ_4BYTE);
....................       
....................       spi_xfer(FLASH1G,address[0]);   
....................       spi_xfer(FLASH1G,address[1]);    
....................       spi_xfer(FLASH1G,address[2]);    
....................       spi_xfer(FLASH1G,address[3]);
....................       read_data = spi_xfer(FLASH1G);
....................       //////////////////////////////////////////////////////////////////
....................       
....................       delay_us(2);
....................       output_high(FLASH1G_CS);            //take CS PIN higher back
....................       return read_data;
....................    }
....................       
....................    void read_data_bytes_flash1g(unsigned int32 read_address,int8 amount,int8 *read_data)
....................    {
....................       unsigned int8 address[4];
....................       
....................       address[0]  = (unsigned int8)((read_address>>24) & 0xff);   // 0x _ _ 00 00 00
*
0072C:  MOVFF  37,3B
....................       address[1]  = (unsigned int8)((read_address>>16) & 0xff);   // 0x 00 _ _ 00 00
00730:  MOVFF  36,3C
....................       address[2]  = (unsigned int8)((read_address>>8) & 0xff);    // 0x 00 00 _ _ 00
00734:  MOVFF  35,3D
....................       address[3]  = (unsigned int8)((read_address) & 0xff);       // 0x 00 00 00 _ _
00738:  MOVFF  34,3E
....................    
....................       output_low(FLASH1G_CS);
0073C:  BCF    F93.3
0073E:  BCF    F8A.3
....................       ///////////////////////////////////////////////////////////////////
....................       spi_xfer(FLASH1G,READ_4BYTE);
00740:  MOVLW  13
00742:  MOVWF  4B
00744:  MOVLW  08
00746:  MOVWF  4C
00748:  MOVLW  01
0074A:  MOVWF  4D
0074C:  RCALL  0306
....................       
....................       spi_xfer(FLASH1G,address[0]);   
0074E:  MOVFF  3B,4B
00752:  MOVLW  08
00754:  MOVWF  4C
00756:  MOVLW  01
00758:  MOVWF  4D
0075A:  RCALL  0306
....................       spi_xfer(FLASH1G,address[1]);    
0075C:  MOVFF  3C,4B
00760:  MOVLW  08
00762:  MOVWF  4C
00764:  MOVLW  01
00766:  MOVWF  4D
00768:  RCALL  0306
....................       spi_xfer(FLASH1G,address[2]);    
0076A:  MOVFF  3D,4B
0076E:  MOVLW  08
00770:  MOVWF  4C
00772:  MOVLW  01
00774:  MOVWF  4D
00776:  RCALL  0306
....................       spi_xfer(FLASH1G,address[3]);
00778:  MOVFF  3E,4B
0077C:  MOVLW  08
0077E:  MOVWF  4C
00780:  MOVLW  01
00782:  MOVWF  4D
00784:  RCALL  0306
....................       for(int8 i = 0;i < amount;i++)
00786:  CLRF   3F
00788:  MOVF   38,W
0078A:  SUBWF  3F,W
0078C:  BC    07B0
....................          read_data[i] = spi_xfer(FLASH1G);
0078E:  MOVF   3F,W
00790:  ADDWF  39,W
00792:  MOVWF  FE9
00794:  MOVLW  00
00796:  ADDWFC 3A,W
00798:  MOVWF  FEA
0079A:  MOVLW  01
0079C:  MOVWF  4B
0079E:  MOVLW  08
007A0:  MOVWF  4C
007A2:  MOVLW  01
007A4:  MOVWF  4D
007A6:  RCALL  0306
007A8:  MOVFF  01,FEF
007AC:  INCF   3F,F
007AE:  BRA    0788
....................       //////////////////////////////////////////////////////////////////
....................       
....................       delay_us(2);
007B0:  MOVLW  02
007B2:  MOVWF  00
007B4:  DECFSZ 00,F
007B6:  BRA    07B4
007B8:  NOP   
....................       output_high(FLASH1G_CS);            //take CS PIN higher back
007BA:  BCF    F93.3
007BC:  BSF    F8A.3
....................    
....................       return;
007BE:  GOTO   0A94 (RETURN)
....................    }
....................    
....................    void write_data_byte_flash1g(unsigned int32 write_address,int8 write_data)
....................    {
....................       unsigned int8 address[4];
....................       unsigned int8 timeout_counter = 0;
....................       
....................       //Byte extraction
....................       address[0]  = (unsigned int8)((write_address>>24) & 0xff);                     // 0x _ _ 00 00 00
....................       address[1]  = (unsigned int8)((write_address>>16) & 0xff);                     // 0x 00 _ _ 00 00
....................       address[2]  = (unsigned int8)((write_address>>8) & 0xff);                      // 0x 00 00 _ _ 00
....................       address[3]  = (unsigned int8)((write_address) & 0xff);                         // 0x 00 00 00 _ _
....................       
....................       //Write enable sequence
....................       output_low(FLASH1G_CS);
....................       spi_xfer(FLASH1G,WRITE_ENABLE);
....................       output_high(FLASH1G_CS);
....................       //Write enabled
....................       
....................       output_low(FLASH1G_CS);
....................       ////////////////////////////////////////////////////////////////
....................       spi_xfer(FLASH1G,PAGE_PROGRAM_4BYTE);                                               //PAGE WRITE COMAND  (0x12)
....................       spi_xfer(FLASH1G,address[0]);
....................       spi_xfer(FLASH1G,address[1]);
....................       spi_xfer(FLASH1G,address[2]);
....................       spi_xfer(FLASH1G,address[3]);
....................       spi_xfer(FLASH1G,write_data);
....................       ////////////////////////////////////////////////////////////////
....................       
....................       output_high(FLASH1G_CS);          //take CS PIN higher back
....................       
....................       while((status_register_flash1g() & 0x01) == 1)                                          //masking status bit
....................       {
....................          if(timeout_counter > 10)
....................             delay_ms(200);
....................          else
....................             delay_ms(10);   
....................          
....................          if(timeout_counter > 100)
....................          {
....................             #ifdef DEBUG
....................                fprintf(DEBUG_PORT,"flash timeout");
....................             #endif
....................             break;
....................          }  
....................          timeout_counter++;
....................       }
....................       return;
....................    }
....................    
....................    void write_data_bytes_flash1g(unsigned int32 write_address,int8 amount,int8 *write_data)
*
00654:  CLRF   3E
....................    {
....................       unsigned int8 address[4];
....................       unsigned int8 timeout_counter = 0;
....................       
....................       //Byte extraction
....................       address[0]  = (unsigned int8)((write_address>>24) & 0xff);                     // 0x _ _ 00 00 00
00656:  MOVFF  36,3A
....................       address[1]  = (unsigned int8)((write_address>>16) & 0xff);                     // 0x 00 _ _ 00 00
0065A:  MOVFF  35,3B
....................       address[2]  = (unsigned int8)((write_address>>8) & 0xff);                      // 0x 00 00 _ _ 00
0065E:  MOVFF  34,3C
....................       address[3]  = (unsigned int8)((write_address) & 0xff);                         // 0x 00 00 00 _ _
00662:  MOVFF  33,3D
....................       
....................       //Write enable sequence
....................       output_low(FLASH1G_CS);
00666:  BCF    F93.3
00668:  BCF    F8A.3
....................       spi_xfer(FLASH1G,WRITE_ENABLE);
0066A:  MOVLW  06
0066C:  MOVWF  4B
0066E:  MOVLW  08
00670:  MOVWF  4C
00672:  MOVLW  01
00674:  MOVWF  4D
00676:  RCALL  0306
....................       output_high(FLASH1G_CS);
00678:  BCF    F93.3
0067A:  BSF    F8A.3
....................       //Write enabled
....................       
....................       output_low(FLASH1G_CS);
0067C:  BCF    F93.3
0067E:  BCF    F8A.3
....................       ////////////////////////////////////////////////////////////////
....................       spi_xfer(FLASH1G,PAGE_PROGRAM_4BYTE);                                               //PAGE WRITE COMAND  (0x12)
00680:  MOVLW  12
00682:  MOVWF  4B
00684:  MOVLW  08
00686:  MOVWF  4C
00688:  MOVLW  01
0068A:  MOVWF  4D
0068C:  RCALL  0306
....................       spi_xfer(FLASH1G,address[0]);
0068E:  MOVFF  3A,4B
00692:  MOVLW  08
00694:  MOVWF  4C
00696:  MOVLW  01
00698:  MOVWF  4D
0069A:  RCALL  0306
....................       spi_xfer(FLASH1G,address[1]);
0069C:  MOVFF  3B,4B
006A0:  MOVLW  08
006A2:  MOVWF  4C
006A4:  MOVLW  01
006A6:  MOVWF  4D
006A8:  RCALL  0306
....................       spi_xfer(FLASH1G,address[2]);
006AA:  MOVFF  3C,4B
006AE:  MOVLW  08
006B0:  MOVWF  4C
006B2:  MOVLW  01
006B4:  MOVWF  4D
006B6:  RCALL  0306
....................       spi_xfer(FLASH1G,address[3]);
006B8:  MOVFF  3D,4B
006BC:  MOVLW  08
006BE:  MOVWF  4C
006C0:  MOVLW  01
006C2:  MOVWF  4D
006C4:  RCALL  0306
....................       for(int8 i = 0;i < amount;i++) 
006C6:  CLRF   3F
006C8:  MOVF   37,W
006CA:  SUBWF  3F,W
006CC:  BC    06EC
....................          spi_xfer(FLASH1G,write_data[i]);
006CE:  MOVF   3F,W
006D0:  ADDWF  38,W
006D2:  MOVWF  FE9
006D4:  MOVLW  00
006D6:  ADDWFC 39,W
006D8:  MOVWF  FEA
006DA:  MOVFF  FEF,4B
006DE:  MOVLW  08
006E0:  MOVWF  4C
006E2:  MOVLW  01
006E4:  MOVWF  4D
006E6:  RCALL  0306
006E8:  INCF   3F,F
006EA:  BRA    06C8
....................       ////////////////////////////////////////////////////////////////
....................       output_high(FLASH1G_CS);          //take CS PIN higher back
006EC:  BCF    F93.3
006EE:  BSF    F8A.3
....................       
....................       while((status_register_flash1g() & 0x01) == 1)                                          //masking status bit
006F0:  RCALL  033E
006F2:  MOVF   01,W
006F4:  ANDLW  01
006F6:  SUBLW  01
006F8:  BNZ   0728
....................       {
....................          if(timeout_counter > 10)
006FA:  MOVF   3E,W
006FC:  SUBLW  0A
006FE:  BC    0708
....................             delay_ms(200);
00700:  MOVLW  C8
00702:  MOVWF  40
00704:  RCALL  057A
00706:  BRA    070E
....................          else
....................             delay_ms(10);   
00708:  MOVLW  0A
0070A:  MOVWF  40
0070C:  RCALL  057A
....................          
....................          if(timeout_counter > 100)
0070E:  MOVF   3E,W
00710:  SUBLW  64
00712:  BC    0724
....................          {
....................             #ifdef DEBUG
....................                fprintf(DEBUG_PORT,"flash timeout");
00714:  MOVLW  84
00716:  MOVWF  FF6
00718:  MOVLW  00
0071A:  MOVWF  FF7
0071C:  MOVLW  00
0071E:  MOVWF  FF8
00720:  RCALL  02D4
....................             #endif
....................             break;
00722:  BRA    0728
....................          }  
....................          timeout_counter++;
00724:  INCF   3E,F
00726:  BRA    06F0
....................       }
....................       return;
00728:  GOTO   0A48 (RETURN)
....................    }
.................... #endif
.................... 
.................... #ifdef USE_FLASH128M
....................    int8 status_register_flash128m()
....................    {
....................       unsigned int8 status_reg;
....................       output_low(FLASH128M_CS);                                              //lower the CS PIN
....................       spi_xfer(FLASH128M,READ_STATUS_REGISTER);                              //READ STATUS REGISTER COMAND (0x05)
....................       status_reg = spi_xfer(FLASH128M);
....................       output_high(FLASH128M_CS);                                             //take CS PIN higher back
....................       #ifdef DEBUG
....................          if((status_reg & 0x01) == true)                                          //masking status bit
....................             fprintf(DEBUG_PORT,"128Mbit flash busy\n\r");
....................       #endif
....................       return status_reg;
....................    }
....................    
....................    int8 read_id_flash128m()//->success:True,fail:false
....................    {
....................       int8 chip_id[21];
....................       output_low(FLASH128M_CS);
....................       for (int8 i = 0;i <= 20;i++)
....................       {
....................          if (i == 0)
....................          {
....................             chip_id[i] = spi_xfer(FLASH128M,READ_ID);
....................             #ifdef DEBUG
....................                fprintf(DEBUG_PORT,"Read ID:");
....................             #endif
....................          }
....................          else
....................          {
....................             chip_id[i] = spi_xfer(FLASH128M,0x00);
....................             #ifdef DEBUG
....................                fprintf(DEBUG_PORT,"%x ",chip_id[i]);  
....................             #endif
....................          }
....................       }
....................       output_high(FLASH128M_CS);
....................       #ifdef DEBUG
....................          fprintf(DEBUG_PORT,"\r\n");
....................       #endif
....................       //chip id check
....................       if(chip_id[1] == 0x20)
....................       {
....................          #ifdef DEBUG
....................             fprintf(DEBUG_PORT,"flash connect OK\r\n");
....................          #endif
....................          return true;
....................       }
....................       else
....................       {
....................          #ifdef DEBUG
....................             fprintf(DEBUG_PORT,"flash not connect\r\n");
....................          #endif
....................          return false;
....................       }
....................    }
....................    
....................    void sector_erase_flash128m(unsigned int32 sector_address)
....................    {
....................       unsigned int8 address[3];
....................       unsigned int8 timeout_counter = 0;
....................       
....................       address[0]  = (unsigned int8)((sector_address>>16) & 0xff);   // 0x 00 _ _ 00 00
....................       address[1]  = (unsigned int8)((sector_address>>8) & 0xff);    // 0x 00 00 _ _ 00
....................       address[2]  = (unsigned int8)((sector_address) & 0xff);       // 0x 00 00 00 _ _
....................       
....................       //Write enable sequence
....................       output_low(FLASH128M_CS);
....................       spi_xfer(FLASH128M,WRITE_ENABLE);
....................       output_high(FLASH128M_CS);
....................       //Write enabled
....................       
....................       delay_us(2);
....................       
....................       output_low(FLASH128M_CS);
....................       ///////////////////////////////////////////////////////////////////
....................       spi_xfer(FLASH128M,SECTOR_ERASE); //SECTOR ERASE COMAND   (0xDC)
....................       
....................       spi_xfer(FLASH128M,address[0]);   
....................       spi_xfer(FLASH128M,address[1]);    
....................       spi_xfer(FLASH128M,address[2]);    
....................       //////////////////////////////////////////////////////////////////
....................       
....................       output_high(FLASH128M_CS);            //take CS PIN higher back
....................       
....................       while((status_register_flash128m() & 0x01) == 1)                                          //masking status bit
....................       {
....................          if(timeout_counter > 10)
....................             delay_ms(200);
....................          else
....................             delay_ms(10);   
....................          
....................          if(timeout_counter > 100)
....................          {
....................             #ifdef DEBUG
....................                fprintf(DEBUG_PORT,"flash timeout");
....................             #endif
....................             break;
....................          }  
....................          timeout_counter++;
....................       }
....................       return;
....................    }
....................    
....................    void subsector_32kByte_erase_flash128m(unsigned int32 subsector_address)
....................    {
....................       unsigned int8 address[3];
....................       unsigned int8 timeout_counter = 0;
....................       
....................       address[0]  = (unsigned int8)((subsector_address>>16) & 0xff);   // 0x 00 _ _ 00 00
....................       address[1]  = (unsigned int8)((subsector_address>>8) & 0xff);    // 0x 00 00 _ _ 00
....................       address[2]  = (unsigned int8)((subsector_address) & 0xff);       // 0x 00 00 00 _ _
....................       
....................       //Write enable sequence
....................       output_low(FLASH128M_CS);
....................       spi_xfer(FLASH128M,WRITE_ENABLE);
....................       output_high(FLASH128M_CS);
....................       //Write enabled
....................       
....................       output_low(FLASH128M_CS);
....................       ///////////////////////////////////////////////////////////////////
....................       spi_xfer(FLASH128M,SUBSECTOR_32KB_ERASE_4BYTE);
....................       
....................       spi_xfer(FLASH128M,address[0]);   
....................       spi_xfer(FLASH128M,address[1]);    
....................       spi_xfer(FLASH128M,address[2]);    
....................       //////////////////////////////////////////////////////////////////
....................       
....................       output_high(FLASH128M_CS);            //take CS PIN higher back
....................       
....................       while((status_register_flash128m() & 0x01) == 1)                                          //masking status bit
....................       {
....................          if(timeout_counter > 10)
....................             delay_ms(200);
....................          else
....................             delay_ms(10);   
....................          
....................          if(timeout_counter > 100)
....................          {
....................             #ifdef DEBUG
....................                fprintf(DEBUG_PORT,"flash timeout");
....................             #endif
....................             break;
....................          }  
....................          timeout_counter++;
....................       }
....................       
....................    }
....................       
....................    void subsector_4kByte_erase_flash128m(unsigned int32 subsector_address)
....................    {
....................       unsigned int8 address[3];
....................       unsigned int8 timeout_counter = 0;
....................       
....................       address[0]  = (unsigned int8)((subsector_address>>16) & 0xff);   // 0x 00 _ _ 00 00
....................       address[1]  = (unsigned int8)((subsector_address>>8) & 0xff);    // 0x 00 00 _ _ 00
....................       address[2]  = (unsigned int8)((subsector_address) & 0xff);       // 0x 00 00 00 _ _
....................       
....................       //Write enable sequence
....................       output_low(FLASH128M_CS);
....................       //delay_ms(2);
....................       spi_xfer(FLASH128M,WRITE_ENABLE);
....................       output_high(FLASH128M_CS);
....................       //Write enabled
....................       
....................       delay_us(2);
....................       
....................       output_low(FLASH128M_CS);
....................       ///////////////////////////////////////////////////////////////////
....................       spi_xfer(FLASH128M,SUBSECTOR_4KB_ERASE_4BYTE);
....................       
....................       spi_xfer(FLASH128M,address[0]);   
....................       spi_xfer(FLASH128M,address[1]);    
....................       spi_xfer(FLASH128M,address[2]);    
....................       //////////////////////////////////////////////////////////////////
....................       
....................       output_high(FLASH128M_CS);            //take CS PIN higher back
....................       
....................       while((status_register_flash128m() & 0x01) == 1)                                          //masking status bit
....................       {
....................          if(timeout_counter > 10)
....................             delay_ms(200);
....................          else
....................             delay_ms(10);   
....................          
....................          if(timeout_counter > 100)
....................          {
....................             #ifdef DEBUG
....................                fprintf(DEBUG_PORT,"flash timeout");
....................             #endif
....................             break;
....................          }  
....................          timeout_counter++;
....................       }
....................    }
....................       
....................    int8 read_data_byte_flash128m(unsigned int32 read_address)
....................    {
....................       int8 read_data;
....................       unsigned int8 address[3];
....................       
....................       address[0]  = (unsigned int8)((read_address>>16) & 0xff);   // 0x 00 _ _ 00 00
....................       address[1]  = (unsigned int8)((read_address>>8) & 0xff);    // 0x 00 00 _ _ 00
....................       address[2]  = (unsigned int8)((read_address) & 0xff);       // 0x 00 00 00 _ _
....................    
....................       output_low(FLASH128M_CS);
....................       ///////////////////////////////////////////////////////////////////
....................       spi_xfer(FLASH128M,READ);
....................       
....................       spi_xfer(FLASH128M,address[0]);   
....................       spi_xfer(FLASH128M,address[1]);    
....................       spi_xfer(FLASH128M,address[2]);    
....................       read_data = spi_xfer(FLASH128M);
....................       //////////////////////////////////////////////////////////////////
....................       
....................       delay_us(2);
....................       output_high(FLASH128M_CS);            //take CS PIN higher back
....................    
....................       return read_data;
....................    }
....................       
....................    void read_data_bytes_flash128m(unsigned int32 read_address,int8 amount,int8 *read_data)
....................    {
....................       unsigned int8 address[3];
....................       
....................       address[0]  = (unsigned int8)((read_address>>16) & 0xff);   // 0x 00 _ _ 00 00
....................       address[1]  = (unsigned int8)((read_address>>8) & 0xff);    // 0x 00 00 _ _ 00
....................       address[2]  = (unsigned int8)((read_address) & 0xff);       // 0x 00 00 00 _ _
....................    
....................       output_low(FLASH128M_CS);
....................       ///////////////////////////////////////////////////////////////////
....................       spi_xfer(FLASH128M,READ);
....................       
....................       spi_xfer(FLASH128M,address[0]);   
....................       spi_xfer(FLASH128M,address[1]);    
....................       spi_xfer(FLASH128M,address[2]);    
....................       for(int8 i = 0;i < amount;i++)
....................          read_data[i] = spi_xfer(FLASH128M);
....................       //////////////////////////////////////////////////////////////////
....................       
....................       delay_us(2);
....................       output_high(FLASH128M_CS);            //take CS PIN higher back
....................    
....................       return;
....................    }
....................    
....................    void write_data_byte(unsigned int32 write_address,int8 write_data)
....................    {
....................       unsigned int8 address[3];
....................       unsigned int8 timeout_counter = 0;
....................       //Byte extraction
....................       address[0]  = (unsigned int8)((write_address>>16) & 0xff);                     // 0x 00 _ _ 00 00
....................       address[1]  = (unsigned int8)((write_address>>8) & 0xff);                      // 0x 00 00 _ _ 00
....................       address[2]  = (unsigned int8)((write_address) & 0xff);                         // 0x 00 00 00 _ _
....................       
....................       //Write enable sequence
....................       output_low(FLASH128M_CS);
....................       spi_xfer(FLASH128M,WRITE_ENABLE);
....................       output_high(FLASH128M_CS);
....................       //Write enabled
....................       
....................       output_low(FLASH128M_CS);
....................       ////////////////////////////////////////////////////////////////
....................       spi_xfer(FLASH128M,PAGE_PROGRAM_4BYTE);                                               //PAGE WRITE COMAND  (0x12)
....................       spi_xfer(FLASH128M,address[0]);
....................       spi_xfer(FLASH128M,address[1]);
....................       spi_xfer(FLASH128M,address[2]);
....................       spi_xfer(FLASH128M,address[3]);
....................       ////////////////////////////////////////////////////////////////
....................       
....................       output_high(FLASH128M_CS);          //take CS PIN higher back
....................       
....................       while((status_register_flash128m() & 0x01) == 1)                                          //masking status bit
....................       {
....................          if(timeout_counter > 10)
....................             delay_ms(200);
....................          else
....................             delay_ms(10);   
....................          
....................          if(timeout_counter > 100)
....................          {
....................             #ifdef DEBUG
....................                fprintf(DEBUG_PORT,"flash timeout");
....................             #endif
....................             break;
....................          }  
....................          timeout_counter++;
....................       }
....................       //delay_us(10);  
....................       
....................       return;
....................    }
....................    
....................    void write_data_bytes(unsigned int32 write_address,int8 write_data)
....................    {
....................       unsigned int8 address[3];
....................       unsigned int8 timeout_counter = 0;
....................       //Byte extraction
....................       address[0]  = (unsigned int8)((write_address>>16) & 0xff);                     // 0x 00 _ _ 00 00
....................       address[1]  = (unsigned int8)((write_address>>8) & 0xff);                      // 0x 00 00 _ _ 00
....................       address[2]  = (unsigned int8)((write_address) & 0xff);                         // 0x 00 00 00 _ _
....................       
....................       //Write enable sequence
....................       output_low(FLASH128M_CS);
....................       spi_xfer(FLASH128M,WRITE_ENABLE);
....................       output_high(FLASH128M_CS);
....................       //Write enabled
....................       
....................       output_low(FLASH128M_CS);
....................       ////////////////////////////////////////////////////////////////
....................       spi_xfer(FLASH128M,PAGE_PROGRAM_4BYTE);                                               //PAGE WRITE COMAND  (0x12)
....................       spi_xfer(FLASH128M,address[0]);
....................       spi_xfer(FLASH128M,address[1]);
....................       spi_xfer(FLASH128M,address[2]);
....................       spi_xfer(FLASH128M,write_data);
....................       ////////////////////////////////////////////////////////////////
....................       output_high(FLASH128M_CS);          //take CS PIN higher back
....................       
....................       while((status_register_flash128M() & 0x01) == 1)                                          //masking status bit
....................       {
....................          if(timeout_counter > 10)
....................             delay_ms(200);
....................          else
....................             delay_ms(10);   
....................          
....................          if(timeout_counter > 100)
....................          {
....................             #ifdef DEBUG
....................                fprintf(DEBUG_PORT,"flash timeout");
....................             #endif
....................             break;
....................          }  
....................          timeout_counter++;
....................       }
....................       return;
....................    }
.................... 
.................... #endif
.................... 
.................... 
.................... 
.................... 
.................... /*
.................... // ABŃüīÕć║ÕŖøŃüĢŃéīŃéŗ’╝łµŁŻÕĖĖ’╝ē
.................... void main()
.................... {
....................    int8 get_data;
.................... 
....................    fprintf(PORT1, "==Program Start==\r\n");
.................... 
....................    fprintf(PORT1, "Flash Setting Starting...\r\n");
....................    flash_setting();
....................    fprintf(PORT1, "Flash Setting done.\r\n");
.................... 
....................    fprintf(PORT1, "Status Register Flash1G Starting...\r\n");
....................    status_register_flash1g();
....................    fprintf(PORT1, "Status Register Flash1G done.\r\n");
.................... 
....................    fprintf(PORT1, "Read ID Flash1G Starting...\r\n");
....................    read_id_flash1g();
....................    fprintf(PORT1, "Read ID Flash1G done.\r\n");
.................... 
....................    fprintf(PORT1, "Sector Erase Flash1G Starting...\r\n");
....................    sector_erase_flash1g(0000);
....................    fprintf(PORT1, "Sector Erase Flash1G done.\r\n");
.................... 
....................    fprintf(PORT1, "Write Data Flash1G Starting...\r\n");
....................    write_data_byte_flash1g(0x00, 0xAB);
....................    fprintf(PORT1, "Write Data Flash1G done.\r\n");
.................... 
....................    fprintf(PORT1, "Read Data Flash1G Starting...\r\n");
....................    get_data = read_data_byte_flash1g(0x0000);
....................    fprintf(PORT1, "Read Data(Hex): %X\r\n", get_data);
....................    fprintf(PORT1, "Read Data Flash1G done.\r\n");
.................... 
.................... }
.................... */
.................... 
.................... /*
.................... 
.................... // NOIHSŃüīĶĪ©ńż║ŃüĢŃéīŃéŗŃééŃü«
.................... void main()
.................... {
....................    // ŃüōŃüōŃü½µøĖŃüŹĶŠ╝Ńü┐Ńü¤Ńüäµ¢ćÕŁŚÕłŚŃéÆµīćÕ«ÜŃüŚŃü”ŃüÅŃüĀŃüĢŃüä’╝ł5µ¢ćÕŁŚń©ŗÕ║”µÄ©Õź©’╝ē
....................    char write_str[] = "NOIHS";
.................... 
....................    // Õ«ÜńŠ®ŃüŚŃü¤µ¢ćÕŁŚÕłŚŃéÆĶĪ©ńż║
....................    fprintf(PORT1, "String to Write: %s\r\n", write_str);
.................... 
....................    // µ¢ćÕŁŚÕłŚŃü«ķĢĘŃüĢŃéÆĶ©łń«Ś’╝łńĄéń½»Ńü«ŃāīŃā½µ¢ćÕŁŚÕłåŃéÆķÖżŃüÅ’╝ē
....................    int8 data_len = sizeof(write_str) - 1;
.................... 
....................    // Ķ¬ŁŃü┐Õć║ŃüŚŃü¤ŃāćŃā╝Ńé┐ŃéÆµĀ╝ń┤ŹŃüÖŃéŗŃāÉŃāāŃāĢŃéĪ’╝łÕ░æŃüŚÕż¦ŃüŹŃéüŃü½ńó║õ┐Ø’╝ē
....................    int8 read_buf[20];
....................    int8 i;
.................... 
....................    fprintf(PORT1, "==Program Start==\r\n");
.................... 
....................    fprintf(PORT1, "Flash Setting Starting...\r\n");
....................    flash_setting();
....................    fprintf(PORT1, "Flash Setting done.\r\n");
.................... 
....................    fprintf(PORT1, "Status Register Flash1G Starting...\r\n");
....................    status_register_flash1g();
....................    fprintf(PORT1, "Status Register Flash1G done.\r\n");
.................... 
....................    fprintf(PORT1, "Read ID Flash1G Starting...\r\n");
....................    read_id_flash1g();
....................    fprintf(PORT1, "Read ID Flash1G done.\r\n");
.................... 
....................    fprintf(PORT1, "Sector Erase Flash1G Starting...\r\n");
....................    // ŃéóŃāēŃā¼Ńé╣ 0x0000 ŃéÆÕÉ½ŃéĆŃé╗Ńé»Ńé┐ŃéÆµČłÕÄ╗
....................    sector_erase_flash1g(0x0000);
....................    fprintf(PORT1, "Sector Erase Flash1G done.\r\n");
.................... 
....................    fprintf(PORT1, "Write Data Flash1G Starting...\r\n");
.................... 
....................    // µ¢ćÕŁŚÕłŚŃü«µøĖŃüŹĶŠ╝Ńü┐
....................    fprintf(PORT1, "Writing String: %s (Length: %u)\r\n", write_str, data_len);
....................    // (ŃéóŃāēŃā¼Ńé╣, ķĢĘŃüĢ, ŃāćŃā╝Ńé┐ŃāØŃéżŃā│Ńé┐)
....................    write_data_bytes_flash1g(0x0000, data_len, (int8*)write_str);
.................... 
....................    fprintf(PORT1, "Write Data Flash1G done.\r\n");
.................... 
....................    fprintf(PORT1, "Read Data Flash1G Starting...\r\n");
.................... 
....................    // Ķ¬ŁŃü┐Õć║ŃüŚŃāÉŃāāŃāĢŃéĪŃéÆõĖĆµŚ”0(ŃāīŃā½µ¢ćÕŁŚ)Ńü¦Ńé»Ńā¬ŃéóŃüŚŃü”ŃüŖŃüÅ
....................    for(i = 0; i < sizeof(read_buf); i++) {
....................       read_buf[i] = 0;
....................    }
.................... 
....................    // ŃāćŃā╝Ńé┐Ńü«Ķ¬ŁŃü┐Õć║ŃüŚ
....................    // (ŃéóŃāēŃā¼Ńé╣, ķĢĘŃüĢ, ŃāćŃā╝Ńé┐µĀ╝ń┤ŹÕģłŃāØŃéżŃā│Ńé┐)
....................    read_data_bytes_flash1g(0x0000, data_len, read_buf);
.................... 
....................    // ńĄÉµ×£Ńü«ĶĪ©ńż║
....................    // %s Ńü¦µ¢ćÕŁŚÕłŚŃü©ŃüŚŃü”ĶĪ©ńż║
....................    fprintf(PORT1, "Read Data(String): %s\r\n", read_buf);
.................... 
....................    // 1ŃāÉŃéżŃāłŃüÜŃüżHEXŃü¦ĶĪ©ńż║ŃüŚŃü”Ķ®│ń┤░ńó║Ķ¬Ź
....................    fprintf(PORT1, "Read Data(Hex): ");
....................    for(i = 0; i < data_len; i++) {
....................       fprintf(PORT1, "%02X ", read_buf[i]);
....................    }
....................    fprintf(PORT1, "\r\n");
.................... 
....................    fprintf(PORT1, "Read Data Flash1G done.\r\n");
.................... }
.................... */
.................... 
.................... 
.................... // ŃéŁŃā╝Ńā£Ńā╝ŃāēÕģźÕŖøŃéÆÕÅŚŃüæõ╗śŃüæ
.................... void main()
*
007C2:  CLRF   FF8
007C4:  BCF    FD0.7
007C6:  MOVLB  E
007C8:  MOVLW  55
007CA:  MOVWF  F7E
007CC:  MOVLW  AA
007CE:  MOVWF  F7E
007D0:  BCF    F66.6
007D2:  MOVLW  F8
007D4:  MOVWF  x2A
007D6:  MOVLW  F5
007D8:  MOVWF  x2B
007DA:  MOVLW  F8
007DC:  MOVWF  x2C
007DE:  MOVLW  F9
007E0:  MOVWF  x2D
007E2:  MOVLW  20
007E4:  MOVWF  x1D
007E6:  MOVLW  30
007E8:  MOVWF  x22
007EA:  MOVLW  20
007EC:  MOVWF  x24
007EE:  MOVLW  01
007F0:  MOVWF  x25
007F2:  MOVLW  55
007F4:  MOVWF  F7E
007F6:  MOVLW  AA
007F8:  MOVWF  F7E
007FA:  BSF    F66.6
007FC:  CLRF   F9B
007FE:  CLRF   F64
00800:  CLRF   F65
00802:  CLRF   F66
00804:  MOVLW  02
00806:  MOVWF  FD3
00808:  BSF    F67.3
0080A:  MOVLW  A0
0080C:  MOVWF  FAF
0080E:  MOVLW  01
00810:  MOVLB  F
00812:  MOVWF  x30
00814:  MOVLW  A6
00816:  MOVWF  FAC
00818:  MOVLW  90
0081A:  MOVWF  FAB
0081C:  BSF    x31.3
0081E:  MOVLW  A0
00820:  MOVWF  x1F
00822:  MOVLW  01
00824:  MOVWF  x20
00826:  MOVLW  A6
00828:  MOVWF  x32
0082A:  MOVLW  90
0082C:  MOVWF  x33
0082E:  BSF    x2D.3
00830:  MOVLW  A0
00832:  MOVWF  x2B
00834:  MOVLW  01
00836:  MOVWF  x2C
00838:  MOVLW  A6
0083A:  MOVWF  x2E
0083C:  MOVLW  90
0083E:  MOVWF  x2F
00840:  MOVLB  E
00842:  BSF    xFD.3
00844:  MOVLW  A0
00846:  MOVWF  xFB
00848:  MOVLW  01
0084A:  MOVWF  xFC
0084C:  MOVLW  A6
0084E:  MOVWF  xFE
00850:  MOVLW  90
00852:  MOVWF  xFF
00854:  BSF    F93.5
00856:  BCF    F93.4
00858:  BCF    F93.2
0085A:  BCF    F8A.2
0085C:  CLRF   05
0085E:  CLRF   04
00860:  CLRF   xD9
00862:  CLRF   xDA
00864:  CLRF   xCE
00866:  CLRF   xCF
00868:  CLRF   xD0
0086A:  CLRF   xD1
0086C:  CLRF   xD2
0086E:  CLRF   xD3
00870:  CLRF   xD4
00872:  CLRF   xD5
00874:  CLRF   x45
00876:  CLRF   x46
00878:  CLRF   x47
0087A:  BCF    x8D.7
0087C:  BCF    x8D.6
0087E:  BCF    x8D.5
00880:  MOVLB  F
00882:  CLRF   x53
00884:  CLRF   x38
00886:  CLRF   x37
.................... {
....................    // ÕģźÕŖøńö©Ńü©Ķ¬ŁŃü┐Õć║ŃüŚńö©Ńü«ŃāÉŃāāŃāĢŃéĪ
....................    char write_str[21];
....................    int8 read_buf[21];
.................... 
....................    int8 data_len;
....................    int8 i;
....................    char c;
.................... 
....................    fprintf(PORT1, "==Program Start==\r\n");
00888:  MOVLW  92
0088A:  MOVWF  FF6
0088C:  MOVLW  00
0088E:  MOVWF  FF7
00890:  MOVLW  00
00892:  MOVWF  FF8
00894:  MOVLB  0
00896:  RCALL  02D4
.................... 
....................    fprintf(PORT1, "Flash Setting Starting...\r\n");
00898:  MOVLW  A6
0089A:  MOVWF  FF6
0089C:  MOVLW  00
0089E:  MOVWF  FF7
008A0:  MOVLW  00
008A2:  MOVWF  FF8
008A4:  RCALL  02D4
....................    flash_setting();
008A6:  BRA    02FE
....................    fprintf(PORT1, "Flash Setting done.\r\n");
008A8:  MOVLW  C2
008AA:  MOVWF  FF6
008AC:  MOVLW  00
008AE:  MOVWF  FF7
008B0:  MOVLW  00
008B2:  MOVWF  FF8
008B4:  RCALL  02D4
.................... 
....................    fprintf(PORT1, "Status Register Flash1G Starting...\r\n");
008B6:  MOVLW  D8
008B8:  MOVWF  FF6
008BA:  MOVLW  00
008BC:  MOVWF  FF7
008BE:  MOVLW  00
008C0:  MOVWF  FF8
008C2:  RCALL  02D4
....................    status_register_flash1g();
008C4:  RCALL  033E
....................    fprintf(PORT1, "Status Register Flash1G done.\r\n");
008C6:  MOVLW  FE
008C8:  MOVWF  FF6
008CA:  MOVLW  00
008CC:  MOVWF  FF7
008CE:  MOVLW  00
008D0:  MOVWF  FF8
008D2:  RCALL  02D4
.................... 
....................    fprintf(PORT1, "Read ID Flash1G Starting...\r\n");
008D4:  MOVLW  1E
008D6:  MOVWF  FF6
008D8:  MOVLW  01
008DA:  MOVWF  FF7
008DC:  MOVLW  00
008DE:  MOVWF  FF8
008E0:  RCALL  02D4
....................    if(read_id_flash1g()) {
008E2:  BRA    03C4
008E4:  MOVF   01,F
008E6:  BZ    08F8
....................       fprintf(PORT1, "Flash ID Check OK.\r\n");
008E8:  MOVLW  3C
008EA:  MOVWF  FF6
008EC:  MOVLW  01
008EE:  MOVWF  FF7
008F0:  MOVLW  00
008F2:  MOVWF  FF8
008F4:  RCALL  02D4
....................    } else {
008F6:  BRA    0906
....................       fprintf(PORT1, "Flash ID Check FAILED. (Check Connections)\r\n");
008F8:  MOVLW  52
008FA:  MOVWF  FF6
008FC:  MOVLW  01
008FE:  MOVWF  FF7
00900:  MOVLW  00
00902:  MOVWF  FF8
00904:  RCALL  02D4
....................    }
....................    fprintf(PORT1, "Read ID Flash1G done.\r\n");
00906:  MOVLW  80
00908:  MOVWF  FF6
0090A:  MOVLW  01
0090C:  MOVWF  FF7
0090E:  MOVLW  00
00910:  MOVWF  FF8
00912:  RCALL  02D4
.................... 
....................    // ŃāĪŃéżŃā│Ńā½Ńā╝ŃāŚ’╝ÜõĮĢÕ║”ŃééÕģźÕŖøŌåÆµøĖŃüŹĶŠ╝Ńü┐ŌåÆĶ¬ŁŃü┐Õć║ŃüŚŃéÆĶĪīŃüłŃéŗŃéłŃüåŃü½ŃüÖŃéŗ
....................    while(TRUE)
....................    {
....................       fprintf(PORT1, "\r\n================================\r\n");
00914:  MOVLW  98
00916:  MOVWF  FF6
00918:  MOVLW  01
0091A:  MOVWF  FF7
0091C:  MOVLW  00
0091E:  MOVWF  FF8
00920:  RCALL  02D4
....................       fprintf(PORT1, "Please enter text (max 20 chars) and press ENTER:\r\n> ");
00922:  MOVLW  BE
00924:  MOVWF  FF6
00926:  MOVLW  01
00928:  MOVWF  FF7
0092A:  MOVLW  00
0092C:  MOVWF  FF8
0092E:  RCALL  02D4
.................... 
....................       // --- µ¢ćÕŁŚÕłŚÕģźÕŖøÕć”ńÉå (Ńé©Ńé│Ńā╝ŃāÉŃāāŃé»õ╗śŃüŹ) ---
....................       data_len = 0;
00930:  CLRF   30
....................       while(TRUE)
....................       {
....................          c = fgetc(PORT1); // UART1ŃüŗŃéē1µ¢ćÕŁŚÕÅŚõ┐Ī (Ńā¢ŃāŁŃāāŃéŁŃā│Ńé░)
00932:  BTFSS  F9E.5
00934:  BRA    0932
00936:  MOVFF  FAE,32
.................... 
....................          if(c == '\r') // EnterŃéŁŃā╝ŃüīµŖ╝ŃüĢŃéīŃü¤ŃéēńĄéõ║å
0093A:  MOVF   32,W
0093C:  SUBLW  0D
0093E:  BNZ   0944
....................          {
....................              break;
00940:  BRA    0984
....................          }
00942:  BRA    0982
....................          else if(c == 0x08 || c == 0x7F) // ŃāÉŃāāŃé»Ńé╣ŃāÜŃā╝Ńé╣ŃéŁŃā╝Ńü«Õć”ńÉå
00944:  MOVF   32,W
00946:  SUBLW  08
00948:  BZ    0950
0094A:  MOVF   32,W
0094C:  SUBLW  7F
0094E:  BNZ   0964
....................          {
....................              if(data_len > 0)
00950:  MOVF   30,F
00952:  BZ    0962
....................              {
....................                  data_len--;
00954:  DECF   30,F
....................                  fputc(0x08, PORT1); // Ńé½Ńā╝ŃéĮŃā½ŃéÆµł╗ŃüÖ
00956:  MOVLW  08
00958:  RCALL  048E
....................                  fputc(' ', PORT1);  // ń®║ńÖĮŃü¦µ¢ćÕŁŚŃéÆµČłŃüÖ
0095A:  MOVLW  20
0095C:  RCALL  048E
....................                  fputc(0x08, PORT1); // ÕåŹÕ║”Ńé½Ńā╝ŃéĮŃā½ŃéÆµł╗ŃüÖ
0095E:  MOVLW  08
00960:  RCALL  048E
....................              }
....................          }
00962:  BRA    0982
....................          else if(data_len < 20) // ķĆÜÕĖĖŃü«µ¢ćÕŁŚÕģźÕŖø (ŃāÉŃāāŃāĢŃéĪõĖŖķÖÉŃüŠŃü¦)
00964:  MOVF   30,W
00966:  SUBLW  13
00968:  BNC   0982
....................          {
....................              write_str[data_len] = c;
0096A:  CLRF   03
0096C:  MOVF   30,W
0096E:  ADDLW  06
00970:  MOVWF  FE9
00972:  MOVLW  00
00974:  ADDWFC 03,W
00976:  MOVWF  FEA
00978:  MOVFF  32,FEF
....................              data_len++;
0097C:  INCF   30,F
....................              fputc(c, PORT1); // ÕģźÕŖøŃüŚŃü¤µ¢ćÕŁŚŃéÆńö╗ķØóŃü½ĶĪ©ńż║ (Ńé©Ńé│Ńā╝ŃāÉŃāāŃé»)
0097E:  MOVF   32,W
00980:  RCALL  048E
....................          }
00982:  BRA    0932
....................       }
.................... 
....................       write_str[data_len] = '\0'; // µ¢ćÕŁŚÕłŚŃü«ńĄéń½»Õć”ńÉå
00984:  CLRF   03
00986:  MOVF   30,W
00988:  ADDLW  06
0098A:  MOVWF  FE9
0098C:  MOVLW  00
0098E:  ADDWFC 03,W
00990:  MOVWF  FEA
00992:  CLRF   FEF
....................       fprintf(PORT1, "\r\n"); // µö╣ĶĪī
00994:  MOVLW  0D
00996:  BTFSS  F9E.4
00998:  BRA    0996
0099A:  MOVWF  FAD
0099C:  MOVLW  0A
0099E:  BTFSS  F9E.4
009A0:  BRA    099E
009A2:  MOVWF  FAD
.................... 
....................       // õĮĢŃééÕģźÕŖøŃüĢŃéīŃü¬ŃüŗŃüŻŃü¤ÕĀ┤ÕÉłŃü»Ńé╣ŃéŁŃāāŃāŚ
....................       if (data_len == 0) {
009A4:  MOVF   30,F
009A6:  BNZ   09B8
....................           fprintf(PORT1, "No text entered. Try again.\r\n");
009A8:  MOVLW  F4
009AA:  MOVWF  FF6
009AC:  MOVLW  01
009AE:  MOVWF  FF7
009B0:  MOVLW  00
009B2:  MOVWF  FF8
009B4:  RCALL  02D4
....................           continue;
009B6:  BRA    0914
....................       }
.................... 
....................       fprintf(PORT1, "Input received: %s (Length: %u)\r\n", write_str, data_len);
009B8:  MOVLW  12
009BA:  MOVWF  FF6
009BC:  MOVLW  02
009BE:  MOVWF  FF7
009C0:  MOVLW  00
009C2:  MOVWF  FF8
009C4:  MOVLW  10
009C6:  MOVWF  33
009C8:  RCALL  0496
009CA:  CLRF   FEA
009CC:  MOVLW  06
009CE:  MOVWF  FE9
009D0:  RCALL  04BE
009D2:  MOVLW  24
009D4:  MOVWF  FF6
009D6:  MOVLW  02
009D8:  MOVWF  FF7
009DA:  MOVLW  00
009DC:  MOVWF  FF8
009DE:  MOVLW  0A
009E0:  MOVWF  33
009E2:  RCALL  0496
009E4:  MOVFF  30,33
009E8:  MOVLW  1B
009EA:  MOVWF  34
009EC:  BRA    050C
009EE:  MOVLW  30
009F0:  MOVWF  FF6
009F2:  MOVLW  02
009F4:  MOVWF  FF7
009F6:  MOVLW  00
009F8:  MOVWF  FF8
009FA:  MOVLW  03
009FC:  MOVWF  33
009FE:  RCALL  0496
.................... 
....................       // --- Ńé╗Ńé»Ńé┐µČłÕÄ╗ ---
....................       // µøĖŃüŹĶŠ╝Ńü┐ÕēŹŃü½Õ»ŠĶ▒ĪŃé╗Ńé»Ńé┐(ŃüōŃüōŃü¦Ńü»0x0000ŃéÆÕÉ½ŃéĆŃé╗Ńé»Ńé┐)ŃéÆµČłÕÄ╗ŃüÖŃéŗÕ┐ģĶ”üŃüīŃüéŃéŖŃüŠŃüÖ
....................       fprintf(PORT1, "Sector Erase Flash1G (Addr: 0x0000)...\r\n");
00A00:  MOVLW  34
00A02:  MOVWF  FF6
00A04:  MOVLW  02
00A06:  MOVWF  FF7
00A08:  MOVLW  00
00A0A:  MOVWF  FF8
00A0C:  RCALL  02D4
....................       sector_erase_flash1g(0x0000);
00A0E:  CLRF   36
00A10:  CLRF   35
00A12:  CLRF   34
00A14:  CLRF   33
00A16:  BRA    05A2
....................       fprintf(PORT1, "Sector Erase done.\r\n");
00A18:  MOVLW  5E
00A1A:  MOVWF  FF6
00A1C:  MOVLW  02
00A1E:  MOVWF  FF7
00A20:  MOVLW  00
00A22:  MOVWF  FF8
00A24:  RCALL  02D4
.................... 
....................       // --- µøĖŃüŹĶŠ╝Ńü┐ ---
....................       fprintf(PORT1, "Writing Data...\r\n");
00A26:  MOVLW  74
00A28:  MOVWF  FF6
00A2A:  MOVLW  02
00A2C:  MOVWF  FF7
00A2E:  MOVLW  00
00A30:  MOVWF  FF8
00A32:  RCALL  02D4
....................       // (ŃéóŃāēŃā¼Ńé╣, ķĢĘŃüĢ, ŃāćŃā╝Ńé┐ŃāØŃéżŃā│Ńé┐)
....................       write_data_bytes_flash1g(0x0000, data_len, (int8*)write_str);
00A34:  CLRF   36
00A36:  CLRF   35
00A38:  CLRF   34
00A3A:  CLRF   33
00A3C:  MOVFF  30,37
00A40:  CLRF   39
00A42:  MOVLW  06
00A44:  MOVWF  38
00A46:  BRA    0654
....................       fprintf(PORT1, "Write done.\r\n");
00A48:  MOVLW  86
00A4A:  MOVWF  FF6
00A4C:  MOVLW  02
00A4E:  MOVWF  FF7
00A50:  MOVLW  00
00A52:  MOVWF  FF8
00A54:  RCALL  02D4
.................... 
....................       // --- Ķ¬ŁŃü┐Õć║ŃüŚµż£Ķ©╝ ---
....................       fprintf(PORT1, "Reading Data...\r\n");
00A56:  MOVLW  94
00A58:  MOVWF  FF6
00A5A:  MOVLW  02
00A5C:  MOVWF  FF7
00A5E:  MOVLW  00
00A60:  MOVWF  FF8
00A62:  RCALL  02D4
.................... 
....................       // Ķ¬ŁŃü┐Õć║ŃüŚŃāÉŃāāŃāĢŃéĪŃéÆŃé»Ńā¬Ńéó
....................       for(i = 0; i < sizeof(read_buf); i++) read_buf[i] = 0;
00A64:  CLRF   31
00A66:  MOVF   31,W
00A68:  SUBLW  14
00A6A:  BNC   0A80
00A6C:  CLRF   03
00A6E:  MOVF   31,W
00A70:  ADDLW  1B
00A72:  MOVWF  FE9
00A74:  MOVLW  00
00A76:  ADDWFC 03,W
00A78:  MOVWF  FEA
00A7A:  CLRF   FEF
00A7C:  INCF   31,F
00A7E:  BRA    0A66
.................... 
....................       // ŃāćŃā╝Ńé┐Ńü«Ķ¬ŁŃü┐Õć║ŃüŚ
....................       read_data_bytes_flash1g(0x0000, data_len, read_buf);
00A80:  CLRF   37
00A82:  CLRF   36
00A84:  CLRF   35
00A86:  CLRF   34
00A88:  MOVFF  30,38
00A8C:  CLRF   3A
00A8E:  MOVLW  1B
00A90:  MOVWF  39
00A92:  BRA    072C
.................... 
....................       // ńĄÉµ×£Ńü«ĶĪ©ńż║
....................       fprintf(PORT1, "Read Result(String): %s\r\n", read_buf);
00A94:  MOVLW  A6
00A96:  MOVWF  FF6
00A98:  MOVLW  02
00A9A:  MOVWF  FF7
00A9C:  MOVLW  00
00A9E:  MOVWF  FF8
00AA0:  MOVLW  15
00AA2:  MOVWF  33
00AA4:  RCALL  0496
00AA6:  CLRF   FEA
00AA8:  MOVLW  1B
00AAA:  MOVWF  FE9
00AAC:  RCALL  04BE
00AAE:  MOVLW  0D
00AB0:  BTFSS  F9E.4
00AB2:  BRA    0AB0
00AB4:  MOVWF  FAD
00AB6:  MOVLW  0A
00AB8:  BTFSS  F9E.4
00ABA:  BRA    0AB8
00ABC:  MOVWF  FAD
.................... 
....................       // Ķ®│ń┤░Ńü¬HEXĶĪ©ńż║
....................       fprintf(PORT1, "Read Result(Hex): ");
00ABE:  MOVLW  C0
00AC0:  MOVWF  FF6
00AC2:  MOVLW  02
00AC4:  MOVWF  FF7
00AC6:  MOVLW  00
00AC8:  MOVWF  FF8
00ACA:  RCALL  02D4
....................       for(i = 0; i < data_len; i++) {
00ACC:  CLRF   31
00ACE:  MOVF   30,W
00AD0:  SUBWF  31,W
00AD2:  BC    0AF8
....................          fprintf(PORT1, "%02X ", read_buf[i]);
00AD4:  CLRF   03
00AD6:  MOVF   31,W
00AD8:  ADDLW  1B
00ADA:  MOVWF  FE9
00ADC:  MOVLW  00
00ADE:  ADDWFC 03,W
00AE0:  MOVWF  FEA
00AE2:  MOVFF  FEF,4A
00AE6:  MOVLW  37
00AE8:  MOVWF  4B
00AEA:  RCALL  0382
00AEC:  MOVLW  20
00AEE:  BTFSS  F9E.4
00AF0:  BRA    0AEE
00AF2:  MOVWF  FAD
00AF4:  INCF   31,F
00AF6:  BRA    0ACE
....................       }
....................       fprintf(PORT1, "\r\n");
00AF8:  MOVLW  0D
00AFA:  BTFSS  F9E.4
00AFC:  BRA    0AFA
00AFE:  MOVWF  FAD
00B00:  MOVLW  0A
00B02:  BTFSS  F9E.4
00B04:  BRA    0B02
00B06:  MOVWF  FAD
00B08:  BRA    0914
.................... 
....................       // õĖĆĶć┤ńó║Ķ¬Ź
....................       // ń░ĪµśōńÜäŃü¬ŃāüŃé¦ŃāāŃé»’╝łÕģłķĀŁµ¢ćÕŁŚŃü©ķĢĘŃüĢŃüīÕÉłŃüŻŃü”ŃüäŃéŗŃüŗŃü¬Ńü®’╝ē
....................       // Õ┐ģĶ”üŃü¦ŃüéŃéīŃü░ strcmp Ńü¬Ńü®Ńü¦ÕÄ│Õ»åŃü½µ»öĶ╝āÕÅ»ĶāĮ
....................    }
.................... }
00B0A:  SLEEP 

Configuration Fuses:
   Word  1: F7A0   STVREN NOXINST NODEBUG BROWNOUT_SW BORV18 NOPROTECT
   Word  2: FF82   PR SOSC_DIG NOCLOCKOUT IESO NOPLL
   Word  3: F032   HS
   Word  4: F7FF   WPFP WPDIS WPEND NOWPCFG
   Word  5: FF03   T5G_IS_T5G CINA_DEFAULT IOL1WAY LS48MHZ MSSP2MSK7 MSSPMSK7
   Word  6: FCFF   WDTWIN_25% WDTCLK_FRC WDT32768 NOWDT WINDIS WPRES128
   Word  7: F01D   NOVREGSLEEP VBATBOR DSBOR DS_SW
   Word  8: F3F8   DSWDT_25DAYS NODSWDT DSWDTOSC_INT
